(dp1
S'output'
p2
S"<class 'pymongo.errors.ServerSelectionTimeoutError'> localhost:27017: [Errno 10061] No connection could be made because the target machine actively refused it"
p3
sS'layer'
p4
S'D:\\Workspaces\\MS_Project\\web2py\\applications\\twitter_analysis_app\\controllers/default.py'
p5
sS'code'
p6
S'# -*- coding: utf-8 -*-\n# this file is released under public domain and you can use without limitations\n\n# -------------------------------------------------------------------------\n# This is a sample controller\n# - index is the default action of any application\n# - user is required for authentication and authorization\n# - download is for downloading files uploaded in the db (does streaming)\n# -------------------------------------------------------------------------\nimport tweepy\nimport numpy as np\nimport pandas as pd\nfrom pymongo import MongoClient\nimport re\nimport datetime\nimport json\n\n\ncollection = MongoClient(\'localhost\', 27017)["tweets"]["StreamingDemo"]\n\nconsumer_key = "8pCg0f2Ih81PSpbH5XQNptWPQ"\nconsumer_secret = "ghSdXGQKYABWdCn44TNizjvBt05l2mqeQtveBrBCkbVFGtB1iB"\n\naccess_token = "783900324704641024-fcqOlSez6zgnx3ArAq5jIDso736hT1V"\naccess_token_secret = "mXO8CSnhGP1jwBbBGop6zZTgmau4ywO7HtrF44MwBKAGZ"\n\n\nauth = tweepy.OAuthHandler(consumer_key, consumer_secret)\nauth.set_access_token(access_token, access_token_secret)\n\napi = tweepy.API(auth)\n\ndef get_api():\n    consumer_key = "8pCg0f2Ih81PSpbH5XQNptWPQ"\n    consumer_secret = "ghSdXGQKYABWdCn44TNizjvBt05l2mqeQtveBrBCkbVFGtB1iB"\n\n    access_token = "783900324704641024-fcqOlSez6zgnx3ArAq5jIDso736hT1V"\n    access_token_secret = "mXO8CSnhGP1jwBbBGop6zZTgmau4ywO7HtrF44MwBKAGZ"\n\n    auth = tweepy.OAuthHandler(consumer_key, consumer_secret)\n    auth.set_access_token(access_token, access_token_secret)\n\n    api = tweepy.API(auth)\n\n    return api\n\n\ndef get_collection():\n    collection = MongoClient(\'localhost\', 27017)["tweets"]["StreamingDemo"]\n    return collection\n\nclass MyStreamListener(tweepy.StreamListener):\n\n    count = 0\n\n    def on_status(self, status):\n        self.count += 1\n        print self.count\n        collection.insert_one(status._json)\n        if self.count > 1000:\n            myStream.disconnect()\n            print "Twitter stream has been disconnected successfully."\n\n# myStreamListener = MyStreamListener()\n# myStream = tweepy.Stream(auth=api.auth, listener=MyStreamListener())\n#\n# myStream.filter(track=[\'Trump\'])\n\n\ndef index():\n    """\n    example action using the internationalization operator T and flash\n    rendered by views/default/index.html or views/generic.html\n\n    if you need a simple wiki simply replace the two lines below with:\n    return auth.wiki()\n    """\n    collection = get_collection()\n    dataset = [{"created_at": item["created_at"],\n                "text": item["text"],\n                "user": "@%s" % item["user"]["screen_name"],\n                "source": item["source"],\n                "lang": item["lang"],\n                } for item in collection.find()]\n\n    dataset = pd.DataFrame(dataset)\n    dataset.source_name = dataset.source.apply(get_source_name)\n    source_counts = dataset.source_name.value_counts().sort_values()[-10:]\n    lang_counts = dataset.lang.value_counts().sort_values()\n    source_info = {}\n    for s in source_counts.iteritems():\n        source_info[s[0]] = s[1]\n    return dict(source_info=source_info)\n\n\ndef get_source_name(x):\n    value = re.findall(pattern="<[^>]+>([^<]+)</a>", string=x)\n    if len(value) > 0:\n        return value[0]\n    else:\n        return ""\n\n\ndef get_chart_data():\n    print "get_chart_data"\n    collection = get_collection()\n    dataset = [{"created_at": item["created_at"],\n                "text": item["text"],\n                "user": "@%s" % item["user"]["screen_name"],\n                "source": item["source"],\n                "lang": item["lang"],\n                "filter_level": item["filter_level"],\n                } for item in collection.find()]\n\n    dataset = pd.DataFrame(dataset)\n    dataset.source_name = dataset.source.apply(get_source_name)\n    source_counts = dataset.source_name.value_counts().sort_values()[-10:]\n    lang_counts = dataset.lang.value_counts().sort_values()[-5:]\n    filter_level_counts = dataset.filter_level.value_counts().sort_values()\n    print "------------ The language distribution is : ------------------"\n    print lang_counts\n    print "---------- End of the language distribution is : -------------"\n    print "------------ The filter_level distribution is : ------------------"\n    print filter_level_counts\n    print "---------- End of the filter_level distribution is : -------------"\n    data = []\n    for s in source_counts.iteritems():\n        data.insert(0, {\n            "Device": s[0],\n            "tweets": s[1].item()\n        })\n        print type(s[1].item())\n    print data\n    json_data = response.json(data)\n    print json_data\n    return response.json(data)\n    # json_data = json.dumps(data)\n    # print json_data\n    # return json.dumps(data)\ndef user():\n    """\n    exposes:\n    http://..../[app]/default/user/login\n    http://..../[app]/default/user/logout\n    http://..../[app]/default/user/register\n    http://..../[app]/default/user/profile\n    http://..../[app]/default/user/retrieve_password\n    http://..../[app]/default/user/change_password\n    http://..../[app]/default/user/bulk_register\n    use @auth.requires_login()\n        @auth.requires_membership(\'group name\')\n        @auth.requires_permission(\'read\',\'table name\',record_id)\n    to decorate functions that need access control\n    also notice there is http://..../[app]/appadmin/manage/auth to allow administrator to manage users\n    """\n    return dict(form=auth())\n\n\n@cache.action()\ndef download():\n    """\n    allows downloading of uploaded files\n    http://..../[app]/default/download/[filename]\n    """\n    return response.download(request, db)\n\n\ndef call():\n    """\n    exposes services. for example:\n    http://..../[app]/default/call/jsonrpc\n    decorate with @services.jsonrpc the functions to expose\n    supports xml, json, xmlrpc, jsonrpc, amfrpc, rss, csv\n    """\n    return service()\n\n\n\nresponse._vars=response._caller(index)\n'
p7
sS'snapshot'
p8
(dp9
S'exception'
p10
(dp11
S'__module__'
p12
S"'pymongo.errors'"
p13
sS'__getslice__'
p14
S"<method-wrapper '__getslice__' of ServerSelectionTimeoutError object>"
p15
sS'__str__'
p16
S"<method-wrapper '__str__' of ServerSelectionTimeoutError object>"
p17
sS'__reduce__'
p18
S'<built-in method __reduce__ of ServerSelectionTimeoutError object>'
p19
sS'__dict__'
p20
S"{'details': [], 'errors': []}"
p21
sS'__sizeof__'
p22
S'<built-in method __sizeof__ of ServerSelectionTimeoutError object>'
p23
sS'__weakref__'
p24
S'None'
p25
sS'__init__'
p26
S"<bound method ServerSelectionTimeoutError.__init...ecause the target machine actively refused it',)>"
p27
sS'__setattr__'
p28
S"<method-wrapper '__setattr__' of ServerSelectionTimeoutError object>"
p29
sS'__reduce_ex__'
p30
S'<built-in method __reduce_ex__ of ServerSelectionTimeoutError object>'
p31
sS'__new__'
p32
S'<built-in method __new__ of type object>'
p33
sS'__format__'
p34
S'<built-in method __format__ of ServerSelectionTimeoutError object>'
p35
sS'__class__'
p36
S"<class 'pymongo.errors.ServerSelectionTimeoutError'>"
p37
sS'details'
p38
S'[]'
p39
sS'errors'
p40
S'[]'
p41
sS'__doc__'
p42
S"'Thrown when no MongoDB server is available for a...ference that the replica set cannot satisfy.\\n    '"
p43
sS'__getitem__'
p44
S"<method-wrapper '__getitem__' of ServerSelectionTimeoutError object>"
p45
sS'__setstate__'
p46
S'<built-in method __setstate__ of ServerSelectionTimeoutError object>'
p47
sS'__getattribute__'
p48
S"<method-wrapper '__getattribute__' of ServerSelectionTimeoutError object>"
p49
sS'args'
p50
S"('localhost:27017: [Errno 10061] No connection cou...de because the target machine actively refused it',)"
p51
sS'__subclasshook__'
p52
S'<built-in method __subclasshook__ of type object>'
p53
sS'__unicode__'
p54
S'<built-in method __unicode__ of ServerSelectionTimeoutError object>'
p55
sS'__delattr__'
p56
S"<method-wrapper '__delattr__' of ServerSelectionTimeoutError object>"
p57
sS'__repr__'
p58
S"<method-wrapper '__repr__' of ServerSelectionTimeoutError object>"
p59
sS'__hash__'
p60
S"<method-wrapper '__hash__' of ServerSelectionTimeoutError object>"
p61
ssS'evalue'
p62
S'localhost:27017: [Errno 10061] No connection could be made because the target machine actively refused it'
p63
sS'request'
p64
cgluon.html
XML_unpickle
p65
(S's\xf9R\x00\x00<div><table><tr><td style="font-weight:bold;vertical-align:top;">ajax</td><td style="vertical-align:top;">:</td><td><div>False</div></td></tr><tr><td style="font-weight:bold;vertical-align:top;">application</td><td style="vertical-align:top;">:</td><td><div>twitter_analysis_app</div></td></tr><tr><td style="font-weight:bold;vertical-align:top;">args</td><td style="vertical-align:top;">:</td><td><div><table></table></div></td></tr><tr><td style="font-weight:bold;vertical-align:top;">cid</td><td style="vertical-align:top;">:</td><td><div>None</div></td></tr><tr><td style="font-weight:bold;vertical-align:top;">client</td><td style="vertical-align:top;">:</td><td><div>127.0.0.1</div></td></tr><tr><td style="font-weight:bold;vertical-align:top;">controller</td><td style="vertical-align:top;">:</td><td><div>default</div></td></tr><tr><td style="font-weight:bold;vertical-align:top;">cookies</td><td style="vertical-align:top;">:</td><td><div><table><tr><td style="font-weight:bold;vertical-align:top;">session_id_welcome</td><td style="vertical-align:top;">:</td><td><div>127.0.0.1-109bd9ee-ed03-4398-a802-6135b3a52e92<table><tr><td style="font-weight:bold;vertical-align:top;">comment</td><td style="vertical-align:top;">:</td><td><div></div></td></tr><tr><td style="font-weight:bold;vertical-align:top;">domain</td><td style="vertical-align:top;">:</td><td><div></div></td></tr><tr><td style="font-weight:bold;vertical-align:top;">expires</td><td style="vertical-align:top;">:</td><td><div></div></td></tr><tr><td style="font-weight:bold;vertical-align:top;">httponly</td><td style="vertical-align:top;">:</td><td><div></div></td></tr><tr><td style="font-weight:bold;vertical-align:top;">max-age</td><td style="vertical-align:top;">:</td><td><div></div></td></tr><tr><td style="font-weight:bold;vertical-align:top;">path</td><td style="vertical-align:top;">:</td><td><div></div></td></tr><tr><td style="font-weight:bold;vertical-align:top;">secure</td><td style="vertical-align:top;">:</td><td><div></div></td></tr><tr><td style="font-weight:bold;vertical-align:top;">version</td><td style="vertical-align:top;">:</td><td><div></div></td></tr></table></div></td></tr></table></div></td></tr><tr><td style="font-weight:bold;vertical-align:top;">env</td><td style="vertical-align:top;">:</td><td><div><table><tr><td style="font-weight:bold;vertical-align:top;">HTTP_ACCEPT</td><td style="vertical-align:top;">:</td><td><div>text/html,application/xhtml+xml,application/xml;q=0.9,image/webp,*/*;q=0.8</div></td></tr><tr><td style="font-weight:bold;vertical-align:top;">HTTP_ACCEPT_ENCODING</td><td style="vertical-align:top;">:</td><td><div>gzip, deflate, sdch, br</div></td></tr><tr><td style="font-weight:bold;vertical-align:top;">HTTP_ACCEPT_LANGUAGE</td><td style="vertical-align:top;">:</td><td><div>zh-CN,zh;q=0.8</div></td></tr><tr><td style="font-weight:bold;vertical-align:top;">HTTP_CONNECTION</td><td style="vertical-align:top;">:</td><td><div>keep-alive</div></td></tr><tr><td style="font-weight:bold;vertical-align:top;">HTTP_COOKIE</td><td style="vertical-align:top;">:</td><td><div>session_id_welcome=127.0.0.1-109bd9ee-ed03-4398-a802-6135b3a52e92</div></td></tr><tr><td style="font-weight:bold;vertical-align:top;">HTTP_HOST</td><td style="vertical-align:top;">:</td><td><div>127.0.0.1:8000</div></td></tr><tr><td style="font-weight:bold;vertical-align:top;">HTTP_UPGRADE_INSECURE_REQUESTS</td><td style="vertical-align:top;">:</td><td><div>1</div></td></tr><tr><td style="font-weight:bold;vertical-align:top;">HTTP_USER_AGENT</td><td style="vertical-align:top;">:</td><td><div>Mozilla/5.0 (Windows NT 10.0; Win64; x64) AppleWebKit/537.36 (KHTML, like Gecko) Chrome/54.0.2840.71 Safari/537.36</div></td></tr><tr><td style="font-weight:bold;vertical-align:top;">PATH_INFO</td><td style="vertical-align:top;">:</td><td><div>/twitter_analysis_app/default/index</div></td></tr><tr><td style="font-weight:bold;vertical-align:top;">QUERY_STRING</td><td style="vertical-align:top;">:</td><td><div></div></td></tr><tr><td style="font-weight:bold;vertical-align:top;">REMOTE_ADDR</td><td style="vertical-align:top;">:</td><td><div>127.0.0.1</div></td></tr><tr><td style="font-weight:bold;vertical-align:top;">REMOTE_PORT</td><td style="vertical-align:top;">:</td><td><div>50268</div></td></tr><tr><td style="font-weight:bold;vertical-align:top;">REQUEST_METHOD</td><td style="vertical-align:top;">:</td><td><div>GET</div></td></tr><tr><td style="font-weight:bold;vertical-align:top;">SCRIPT_NAME</td><td style="vertical-align:top;">:</td><td><div></div></td></tr><tr><td style="font-weight:bold;vertical-align:top;">SERVER_NAME</td><td style="vertical-align:top;">:</td><td><div>DESKTOP-O0NOQH9</div></td></tr><tr><td style="font-weight:bold;vertical-align:top;">SERVER_PORT</td><td style="vertical-align:top;">:</td><td><div>8000</div></td></tr><tr><td style="font-weight:bold;vertical-align:top;">SERVER_PROTOCOL</td><td style="vertical-align:top;">:</td><td><div>HTTP/1.1</div></td></tr><tr><td style="font-weight:bold;vertical-align:top;">SERVER_SOFTWARE</td><td style="vertical-align:top;">:</td><td><div>Rocket 1.2.6</div></td></tr><tr><td style="font-weight:bold;vertical-align:top;">app_folders</td><td style="vertical-align:top;">:</td><td><div>set([&#x27;D:\\\\Workspaces\\\\MS_Project\\\\web2py\\\\applications\\\\twitter_analysis_app\\\\&#x27;, &#x27;D:\\\\Workspaces\\\\MS_Project\\\\web2py\\\\applications\\\\welcome\\\\&#x27;])</div></td></tr><tr><td style="font-weight:bold;vertical-align:top;">applications_parent</td><td style="vertical-align:top;">:</td><td><div>D:\\Workspaces\\MS_Project\\web2py</div></td></tr><tr><td style="font-weight:bold;vertical-align:top;">cmd_args</td><td style="vertical-align:top;">:</td><td><div><table></table></div></td></tr><tr><td style="font-weight:bold;vertical-align:top;">cmd_options</td><td style="vertical-align:top;">:</td><td><div>&lt;Values at 0x40713c8: {&#x27;verbose&#x27;: False, &#x27;ip&#x27;: &#x27;127.0.0.1&#x27;, &#x27;debuglevel&#x27;: 30, &#x27;with_scheduler&#x27;: False, &#x27;shutdown_timeout&#x27;: 5, &#x27;taskbar&#x27;: False, &#x27;with_coverage&#x27;: False, &#x27;pid_filename&#x27;: &#x27;httpserver.pid&#x27;, &#x27;maxthreads&#x27;: None, &#x27;softcron&#x27;: False, &#x27;server_name&#x27;: &#x27;DESKTOP-O0NOQH9&#x27;, &#x27;bpython&#x27;: False, &#x27;nogui&#x27;: False, &#x27;port&#x27;: 8000, &#x27;print_errors&#x27;: False, &#x27;extcron&#x27;: False, &#x27;runcron&#x27;: False, &#x27;run_system_tests&#x27;: False, &#x27;test&#x27;: None, &#x27;folder&#x27;: &#x27;D:\\\\Workspaces\\\\MS_Project\\\\web2py&#x27;, &#x27;config&#x27;: &#x27;&#x27;, &#x27;minthreads&#x27;: None, &#x27;shell&#x27;: None, &#x27;run&#x27;: &#x27;&#x27;, &#x27;log_filename&#x27;: &#x27;httpserver.log&#x27;, &#x27;profiler_dir&#x27;: None, &#x27;args&#x27;: [&#x27;&#x27;], &#x27;socket_timeout&#x27;: 5, &#x27;ssl_ca_certificate&#x27;: None, &#x27;scheduler&#x27;: None, &#x27;interfaces&#x27;: None, &#x27;ssl_private_key&#x27;: &#x27;&#x27;, &#x27;gae&#x27;: None, &#x27;password&#x27;: &#x27;******&#x27;, &#x27;request_queue_size&#x27;: 5, &#x27;ssl_certificate&#x27;: &#x27;&#x27;, &#x27;cronjob&#x27;: False, &#x27;numthreads&#x27;: None, &#x27;quiet&#x27;: False, &#x27;import_models&#x27;: False, &#x27;timeout&#x27;: 10, &#x27;plain&#x27;: False, &#x27;nobanner&#x27;: False}&gt;</div></td></tr><tr><td style="font-weight:bold;vertical-align:top;">db_sessions</td><td style="vertical-align:top;">:</td><td><div>set([])</div></td></tr><tr><td style="font-weight:bold;vertical-align:top;">debugging</td><td style="vertical-align:top;">:</td><td><div>False</div></td></tr><tr><td style="font-weight:bold;vertical-align:top;">gluon_parent</td><td style="vertical-align:top;">:</td><td><div>D:\\Workspaces\\MS_Project\\web2py</div></td></tr><tr><td style="font-weight:bold;vertical-align:top;">http_accept</td><td style="vertical-align:top;">:</td><td><div>text/html,application/xhtml+xml,application/xml;q=0.9,image/webp,*/*;q=0.8</div></td></tr><tr><td style="font-weight:bold;vertical-align:top;">http_accept_encoding</td><td style="vertical-align:top;">:</td><td><div>gzip, deflate, sdch, br</div></td></tr><tr><td style="font-weight:bold;vertical-align:top;">http_accept_language</td><td style="vertical-align:top;">:</td><td><div>zh-CN,zh;q=0.8</div></td></tr><tr><td style="font-weight:bold;vertical-align:top;">http_connection</td><td style="vertical-align:top;">:</td><td><div>keep-alive</div></td></tr><tr><td style="font-weight:bold;vertical-align:top;">http_cookie</td><td style="vertical-align:top;">:</td><td><div>session_id_welcome=127.0.0.1-109bd9ee-ed03-4398-a802-6135b3a52e92</div></td></tr><tr><td style="font-weight:bold;vertical-align:top;">http_host</td><td style="vertical-align:top;">:</td><td><div>127.0.0.1:8000</div></td></tr><tr><td style="font-weight:bold;vertical-align:top;">http_upgrade_insecure_requests</td><td style="vertical-align:top;">:</td><td><div>1</div></td></tr><tr><td style="font-weight:bold;vertical-align:top;">http_user_agent</td><td style="vertical-align:top;">:</td><td><div>Mozilla/5.0 (Windows NT 10.0; Win64; x64) AppleWebKit/537.36 (KHTML, like Gecko) Chrome/54.0.2840.71 Safari/537.36</div></td></tr><tr><td style="font-weight:bold;vertical-align:top;">is_jython</td><td style="vertical-align:top;">:</td><td><div>False</div></td></tr><tr><td style="font-weight:bold;vertical-align:top;">is_pypy</td><td style="vertical-align:top;">:</td><td><div>False</div></td></tr><tr><td style="font-weight:bold;vertical-align:top;">is_source</td><td style="vertical-align:top;">:</td><td><div>True</div></td></tr><tr><td style="font-weight:bold;vertical-align:top;">local_hosts</td><td style="vertical-align:top;">:</td><td><div><table><tr><td><div>DESKTOP-O0NOQH9</div></td></tr><tr><td><div>fe80::c79:19dd:f5ff:ffac%7</div></td></tr><tr><td><div>fe80::b96a:492a:eccb:727f%19</div></td></tr><tr><td><div>2601:647:c801:b923:fc9d:a14a:947d:33d4</div></td></tr><tr><td><div>::ffff:127.0.0.1</div></td></tr><tr><td><div>::1</div></td></tr><tr><td><div>10.0.0.83</div></td></tr><tr><td><div>DESKTOP-O0NOQH9.hsd1.ca.comcast.net</div></td></tr><tr><td><div>2001:0:9d38:6abd:c79:19dd:f5ff:ffac</div></td></tr><tr><td><div>2601:647:c801:b923:b96a:492a:eccb:727f</div></td></tr><tr><td><div>127.0.0.1</div></td></tr></table></div></td></tr><tr><td style="font-weight:bold;vertical-align:top;">path_info</td><td style="vertical-align:top;">:</td><td><div>/twitter_analysis_app/default/index</div></td></tr><tr><td style="font-weight:bold;vertical-align:top;">query_string</td><td style="vertical-align:top;">:</td><td><div></div></td></tr><tr><td style="font-weight:bold;vertical-align:top;">remote_addr</td><td style="vertical-align:top;">:</td><td><div>127.0.0.1</div></td></tr><tr><td style="font-weight:bold;vertical-align:top;">remote_port</td><td style="vertical-align:top;">:</td><td><div>50268</div></td></tr><tr><td style="font-weight:bold;vertical-align:top;">request_method</td><td style="vertical-align:top;">:</td><td><div>GET</div></td></tr><tr><td style="font-weight:bold;vertical-align:top;">request_uri</td><td style="vertical-align:top;">:</td><td><div>/twitter_analysis_app/default/index</div></td></tr><tr><td style="font-weight:bold;vertical-align:top;">script_name</td><td style="vertical-align:top;">:</td><td><div></div></td></tr><tr><td style="font-weight:bold;vertical-align:top;">server_name</td><td style="vertical-align:top;">:</td><td><div>DESKTOP-O0NOQH9</div></td></tr><tr><td style="font-weight:bold;vertical-align:top;">server_port</td><td style="vertical-align:top;">:</td><td><div>8000</div></td></tr><tr><td style="font-weight:bold;vertical-align:top;">server_protocol</td><td style="vertical-align:top;">:</td><td><div>HTTP/1.1</div></td></tr><tr><td style="font-weight:bold;vertical-align:top;">server_software</td><td style="vertical-align:top;">:</td><td><div>Rocket 1.2.6</div></td></tr><tr><td style="font-weight:bold;vertical-align:top;">web2py_path</td><td style="vertical-align:top;">:</td><td><div>D:\\Workspaces\\MS_Project\\web2py</div></td></tr><tr><td style="font-weight:bold;vertical-align:top;">web2py_version</td><td style="vertical-align:top;">:</td><td><div>2.14.6-stable+timestamp.2016.05.10.00.21.47</div></td></tr><tr><td style="font-weight:bold;vertical-align:top;">wsgi.errors</td><td style="vertical-align:top;">:</td><td><div>&lt;open file &#x27;&lt;stderr&gt;&#x27;, mode &#x27;w&#x27; at 0x000000000062B150&gt;</div></td></tr><tr><td style="font-weight:bold;vertical-align:top;">wsgi.file_wrapper</td><td style="vertical-align:top;">:</td><td><div>&lt;class wsgiref.util.FileWrapper at 0x00000000040028E8&gt;</div></td></tr><tr><td style="font-weight:bold;vertical-align:top;">wsgi.input</td><td style="vertical-align:top;">:</td><td><div>&lt;socket._fileobject object at 0x00000000046DF138&gt;</div></td></tr><tr><td style="font-weight:bold;vertical-align:top;">wsgi.multiprocess</td><td style="vertical-align:top;">:</td><td><div>False</div></td></tr><tr><td style="font-weight:bold;vertical-align:top;">wsgi.multithread</td><td style="vertical-align:top;">:</td><td><div>True</div></td></tr><tr><td style="font-weight:bold;vertical-align:top;">wsgi.run_once</td><td style="vertical-align:top;">:</td><td><div>False</div></td></tr><tr><td style="font-weight:bold;vertical-align:top;">wsgi.url_scheme</td><td style="vertical-align:top;">:</td><td><div>http</div></td></tr><tr><td style="font-weight:bold;vertical-align:top;">wsgi.version</td><td style="vertical-align:top;">:</td><td><div><table><tr><td><div>1</div></td></tr><tr><td><div>0</div></td></tr></table></div></td></tr><tr><td style="font-weight:bold;vertical-align:top;">wsgi_errors</td><td style="vertical-align:top;">:</td><td><div>&lt;open file &#x27;&lt;stderr&gt;&#x27;, mode &#x27;w&#x27; at 0x000000000062B150&gt;</div></td></tr><tr><td style="font-weight:bold;vertical-align:top;">wsgi_file_wrapper</td><td style="vertical-align:top;">:</td><td><div>&lt;class wsgiref.util.FileWrapper at 0x00000000040028E8&gt;</div></td></tr><tr><td style="font-weight:bold;vertical-align:top;">wsgi_input</td><td style="vertical-align:top;">:</td><td><div>&lt;socket._fileobject object at 0x00000000046DF138&gt;</div></td></tr><tr><td style="font-weight:bold;vertical-align:top;">wsgi_multiprocess</td><td style="vertical-align:top;">:</td><td><div>False</div></td></tr><tr><td style="font-weight:bold;vertical-align:top;">wsgi_multithread</td><td style="vertical-align:top;">:</td><td><div>True</div></td></tr><tr><td style="font-weight:bold;vertical-align:top;">wsgi_run_once</td><td style="vertical-align:top;">:</td><td><div>False</div></td></tr><tr><td style="font-weight:bold;vertical-align:top;">wsgi_url_scheme</td><td style="vertical-align:top;">:</td><td><div>http</div></td></tr><tr><td style="font-weight:bold;vertical-align:top;">wsgi_version</td><td style="vertical-align:top;">:</td><td><div><table><tr><td><div>1</div></td></tr><tr><td><div>0</div></td></tr></table></div></td></tr></table></div></td></tr><tr><td style="font-weight:bold;vertical-align:top;">extension</td><td style="vertical-align:top;">:</td><td><div>html</div></td></tr><tr><td style="font-weight:bold;vertical-align:top;">folder</td><td style="vertical-align:top;">:</td><td><div>D:\\Workspaces\\MS_Project\\web2py\\applications\\twitter_analysis_app\\</div></td></tr><tr><td style="font-weight:bold;vertical-align:top;">function</td><td style="vertical-align:top;">:</td><td><div>index</div></td></tr><tr><td style="font-weight:bold;vertical-align:top;">global_settings</td><td style="vertical-align:top;">:</td><td><div><table><tr><td style="font-weight:bold;vertical-align:top;">app_folders</td><td style="vertical-align:top;">:</td><td><div>set([&#x27;D:\\\\Workspaces\\\\MS_Project\\\\web2py\\\\applications\\\\twitter_analysis_app\\\\&#x27;, &#x27;D:\\\\Workspaces\\\\MS_Project\\\\web2py\\\\applications\\\\welcome\\\\&#x27;])</div></td></tr><tr><td style="font-weight:bold;vertical-align:top;">applications_parent</td><td style="vertical-align:top;">:</td><td><div>D:\\Workspaces\\MS_Project\\web2py</div></td></tr><tr><td style="font-weight:bold;vertical-align:top;">cmd_args</td><td style="vertical-align:top;">:</td><td><div><table></table></div></td></tr><tr><td style="font-weight:bold;vertical-align:top;">cmd_options</td><td style="vertical-align:top;">:</td><td><div>&lt;Values at 0x40713c8: {&#x27;verbose&#x27;: False, &#x27;ip&#x27;: &#x27;127.0.0.1&#x27;, &#x27;debuglevel&#x27;: 30, &#x27;with_scheduler&#x27;: False, &#x27;shutdown_timeout&#x27;: 5, &#x27;taskbar&#x27;: False, &#x27;with_coverage&#x27;: False, &#x27;pid_filename&#x27;: &#x27;httpserver.pid&#x27;, &#x27;maxthreads&#x27;: None, &#x27;softcron&#x27;: False, &#x27;server_name&#x27;: &#x27;DESKTOP-O0NOQH9&#x27;, &#x27;bpython&#x27;: False, &#x27;nogui&#x27;: False, &#x27;port&#x27;: 8000, &#x27;print_errors&#x27;: False, &#x27;extcron&#x27;: False, &#x27;runcron&#x27;: False, &#x27;run_system_tests&#x27;: False, &#x27;test&#x27;: None, &#x27;folder&#x27;: &#x27;D:\\\\Workspaces\\\\MS_Project\\\\web2py&#x27;, &#x27;config&#x27;: &#x27;&#x27;, &#x27;minthreads&#x27;: None, &#x27;shell&#x27;: None, &#x27;run&#x27;: &#x27;&#x27;, &#x27;log_filename&#x27;: &#x27;httpserver.log&#x27;, &#x27;profiler_dir&#x27;: None, &#x27;args&#x27;: [&#x27;&#x27;], &#x27;socket_timeout&#x27;: 5, &#x27;ssl_ca_certificate&#x27;: None, &#x27;scheduler&#x27;: None, &#x27;interfaces&#x27;: None, &#x27;ssl_private_key&#x27;: &#x27;&#x27;, &#x27;gae&#x27;: None, &#x27;password&#x27;: &#x27;******&#x27;, &#x27;request_queue_size&#x27;: 5, &#x27;ssl_certificate&#x27;: &#x27;&#x27;, &#x27;cronjob&#x27;: False, &#x27;numthreads&#x27;: None, &#x27;quiet&#x27;: False, &#x27;import_models&#x27;: False, &#x27;timeout&#x27;: 10, &#x27;plain&#x27;: False, &#x27;nobanner&#x27;: False}&gt;</div></td></tr><tr><td style="font-weight:bold;vertical-align:top;">db_sessions</td><td style="vertical-align:top;">:</td><td><div>set([])</div></td></tr><tr><td style="font-weight:bold;vertical-align:top;">debugging</td><td style="vertical-align:top;">:</td><td><div>False</div></td></tr><tr><td style="font-weight:bold;vertical-align:top;">gluon_parent</td><td style="vertical-align:top;">:</td><td><div>D:\\Workspaces\\MS_Project\\web2py</div></td></tr><tr><td style="font-weight:bold;vertical-align:top;">is_jython</td><td style="vertical-align:top;">:</td><td><div>False</div></td></tr><tr><td style="font-weight:bold;vertical-align:top;">is_pypy</td><td style="vertical-align:top;">:</td><td><div>False</div></td></tr><tr><td style="font-weight:bold;vertical-align:top;">is_source</td><td style="vertical-align:top;">:</td><td><div>True</div></td></tr><tr><td style="font-weight:bold;vertical-align:top;">local_hosts</td><td style="vertical-align:top;">:</td><td><div><table><tr><td><div>DESKTOP-O0NOQH9</div></td></tr><tr><td><div>fe80::c79:19dd:f5ff:ffac%7</div></td></tr><tr><td><div>fe80::b96a:492a:eccb:727f%19</div></td></tr><tr><td><div>2601:647:c801:b923:fc9d:a14a:947d:33d4</div></td></tr><tr><td><div>::ffff:127.0.0.1</div></td></tr><tr><td><div>::1</div></td></tr><tr><td><div>10.0.0.83</div></td></tr><tr><td><div>DESKTOP-O0NOQH9.hsd1.ca.comcast.net</div></td></tr><tr><td><div>2001:0:9d38:6abd:c79:19dd:f5ff:ffac</div></td></tr><tr><td><div>2601:647:c801:b923:b96a:492a:eccb:727f</div></td></tr><tr><td><div>127.0.0.1</div></td></tr></table></div></td></tr><tr><td style="font-weight:bold;vertical-align:top;">web2py_version</td><td style="vertical-align:top;">:</td><td><div>2.14.6-stable+timestamp.2016.05.10.00.21.47</div></td></tr></table></div></td></tr><tr><td style="font-weight:bold;vertical-align:top;">is_https</td><td style="vertical-align:top;">:</td><td><div>False</div></td></tr><tr><td style="font-weight:bold;vertical-align:top;">is_local</td><td style="vertical-align:top;">:</td><td><div>True</div></td></tr><tr><td style="font-weight:bold;vertical-align:top;">is_restful</td><td style="vertical-align:top;">:</td><td><div>False</div></td></tr><tr><td style="font-weight:bold;vertical-align:top;">is_scheduler</td><td style="vertical-align:top;">:</td><td><div>False</div></td></tr><tr><td style="font-weight:bold;vertical-align:top;">is_shell</td><td style="vertical-align:top;">:</td><td><div>False</div></td></tr><tr><td style="font-weight:bold;vertical-align:top;">now</td><td style="vertical-align:top;">:</td><td><div>datetime.datetime(2016, 10, 22, 12, 50, 42, 188000)</div></td></tr><tr><td style="font-weight:bold;vertical-align:top;">raw_args</td><td style="vertical-align:top;">:</td><td><div></div></td></tr><tr><td style="font-weight:bold;vertical-align:top;">raw_extension</td><td style="vertical-align:top;">:</td><td><div>None</div></td></tr><tr><td style="font-weight:bold;vertical-align:top;">url</td><td style="vertical-align:top;">:</td><td><div>/twitter_analysis_app/default/index</div></td></tr><tr><td style="font-weight:bold;vertical-align:top;">utcnow</td><td style="vertical-align:top;">:</td><td><div>datetime.datetime(2016, 10, 22, 19, 50, 42, 188000)</div></td></tr><tr><td style="font-weight:bold;vertical-align:top;">wsgi</td><td style="vertical-align:top;">:</td><td><div>&lt;gluon.main.LazyWSGI object at 0x000000000477CE80&gt;</div></td></tr></table></div>'
tRp66
sS'frames'
p67
(lp68
(dp69
S'file'
p70
S'D:\\Workspaces\\MS_Project\\web2py\\gluon\\restricted.py'
p71
sS'dump'
p72
(dp73
S'environment'
p74
S"{'A': <class 'gluon.html.A'>, 'ANY_OF': <class 'gluon.validators.ANY_OF'>, 'ASSIGNJS': <function ASSIGNJS>, 'AppConfig': <function AppConfig>, 'Auth': <class 'gluon.tools.Auth'>, 'B': <class 'gluon.html.B'>, 'BEAUTIFY': <class 'gluon.html.BEAUTIFY'>, 'BODY': <class 'gluon.html.BODY'>, 'BR': <class 'gluon.html.BR'>, 'BUTTON': <class 'gluon.html.BUTTON'>, ...}"
p75
sS'ccode'
p76
S'<code object <module> at 00000000046F25B0, file ...er_analysis_app\\controllers/default.py", line 10>'
p77
ssS'lnum'
p78
I227
sS'lines'
p79
(dp80
I224
S'            ccode = code'
p81
sI225
S'        else:'
p82
sI226
S'            ccode = compile2(code, layer)'
p83
sI227
S'        exec ccode in environment'
p84
sI228
S'    except HTTP:'
p85
sI229
S'        raise'
p86
sI230
S'    except RestrictedError:'
p87
sI231
S'        # do not encapsulate (obfuscate) the original RestrictedError'
p88
sI222
S'    try:'
p89
sI223
S'        if isinstance(code, types.CodeType):'
p90
ssS'call'
p91
S"(code='# -*- coding: utf-8 -*-\\n# this file is released ...vice()\\n\\n\\n\\nresponse._vars=response._caller(index)\\n', environment={'A': <class 'gluon.html.A'>, 'ANY_OF': <class 'gluon.validators.ANY_OF'>, 'ASSIGNJS': <function ASSIGNJS>, 'AppConfig': <function AppConfig>, 'Auth': <class 'gluon.tools.Auth'>, 'B': <class 'gluon.html.B'>, 'BEAUTIFY': <class 'gluon.html.BEAUTIFY'>, 'BODY': <class 'gluon.html.BODY'>, 'BR': <class 'gluon.html.BR'>, 'BUTTON': <class 'gluon.html.BUTTON'>, ...}, layer=r'D:\\Workspaces\\MS_Project\\web2py\\applications\\twitter_analysis_app\\controllers/default.py')"
p92
sS'func'
p93
S'restricted'
p94
sa(dp95
g70
S'D:\\Workspaces\\MS_Project\\web2py\\applications\\twitter_analysis_app\\controllers\\default.py'
p96
sg72
(dp97
sg78
I179
sg79
(dp98
I168
S'def call():'
p99
sI169
S'    """'
p100
sI170
S'    exposes services. for example:'
p101
sI171
S'    http://..../[app]/default/call/jsonrpc'
p102
sI172
S'    decorate with @services.jsonrpc the functions to expose'
p103
sI173
S'    supports xml, json, xmlrpc, jsonrpc, amfrpc, rss, csv'
p104
sI174
S'    """'
p105
sI175
S'    return service()'
p106
sI176
S''
sI177
S''
ssg91
S'()'
p107
sg93
S'<module>'
p108
sa(dp109
g70
S'D:\\Workspaces\\MS_Project\\web2py\\gluon\\globals.py'
p110
sg72
(dp111
S'self'
p112
S'undefined'
p113
sS'f'
S'<function index>'
p114
ssg78
I417
sg79
(dp115
I416
S'        self._vars = None'
p116
sI417
S'        self._caller = lambda f: f()'
p117
sI418
S'        self._view_environment = None'
p118
sI419
S'        self._custom_commit = None'
p119
sI420
S'        self._custom_rollback = None'
p120
sI421
S"        self.generic_patterns = ['*']"
p121
sI412
S"        self.flash = ''            # used by the default view layout"
p122
sI413
S'        self.meta = Storage()      # used by web2py_ajax.html'
p123
sI414
S'        self.menu = []             # used by the default view layout'
p124
sI415
S'        self.files = []            # used by web2py_ajax.html'
p125
ssg91
S'(f=<function index>)'
p126
sg93
S'<lambda>'
p127
sa(dp128
g70
S'D:\\Workspaces\\MS_Project\\web2py\\applications\\twitter_analysis_app\\controllers\\default.py'
p129
sg72
(dp130
S'item'
p131
g113
sS'collection.find'
p132
S"<bound method Collection.find of Collection(Data...se, connect=True), u'tweets'), u'StreamingDemo')>"
p133
sS'collection'
p134
S"Collection(Database(MongoClient(host=['localhost...lse, connect=True), u'tweets'), u'StreamingDemo')"
p135
ssg78
I84
sg79
(dp136
I79
S'    dataset = [{"created_at": item["created_at"],'
p137
sI80
S'                "text": item["text"],'
p138
sI81
S'                "user": "@%s" % item["user"]["screen_name"],'
p139
sI82
S'                "source": item["source"],'
p140
sI83
S'                "lang": item["lang"],'
p141
sI84
S'                } for item in collection.find()]'
p142
sI85
S''
sI86
S'    dataset = pd.DataFrame(dataset)'
p143
sI87
S'    dataset.source_name = dataset.source.apply(get_source_name)'
p144
sI88
S'    source_counts = dataset.source_name.value_counts().sort_values()[-10:]'
p145
ssg91
S'()'
p146
sg93
S'index'
p147
sa(dp148
g70
S'D:\\DevTools\\Anaconda2\\lib\\site-packages\\pymongo\\cursor.py'
p149
sg72
(dp150
S'builtinlen'
p151
S'<built-in function len>'
p152
sS'self'
p153
S'<pymongo.cursor.Cursor object>'
p154
sS'self.__data'
p155
g113
sS'self._refresh'
p156
S'<bound method Cursor._refresh of <pymongo.cursor.Cursor object>>'
p157
ssg78
I1090
sg79
(dp158
I1088
S'            raise StopIteration'
p159
sI1089
S'        _db = self.__collection.database'
p160
sI1090
S'        if len(self.__data) or self._refresh():'
p161
sI1091
S'            if self.__manipulate:'
p162
sI1092
S'                return _db._fix_outgoing(self.__data.popleft(),'
p163
sI1093
S'                                         self.__collection)'
p164
sI1094
S'            else:'
p165
sI1085
S'    def next(self):'
p166
sI1086
S'        """Advance the cursor."""'
p167
sI1087
S'        if self.__empty:'
p168
ssg91
S'(self=<pymongo.cursor.Cursor object>)'
p169
sg93
S'next'
p170
sa(dp171
g70
S'D:\\DevTools\\Anaconda2\\lib\\site-packages\\pymongo\\cursor.py'
p172
sg72
(dp173
S'self.__read_concern'
p174
g113
sS'self'
p175
S'<pymongo.cursor.Cursor object>'
p176
ssg78
I1012
sg79
(dp177
I1007
S'                                       self.__projection,'
p178
sI1008
S'                                       self.__codec_options,'
p179
sI1009
S'                                       self.__read_preference,'
p180
sI1010
S'                                       self.__limit,'
p181
sI1011
S'                                       self.__batch_size,'
p182
sI1012
S'                                       self.__read_concern))'
p183
sI1013
S'            if not self.__id:'
p184
sI1014
S'                self.__killed = True'
p185
sI1015
S'        elif self.__id:  # Get More'
p186
sI1016
S'            if self.__limit:'
p187
ssg91
S'(self=<pymongo.cursor.Cursor object>)'
p188
sg93
S'_refresh'
p189
sa(dp190
g70
S'D:\\DevTools\\Anaconda2\\lib\\site-packages\\pymongo\\cursor.py'
p191
sg72
(dp192
S'kwargs'
p193
S"{'exhaust': False, 'read_preference': Primary()}"
p194
ssg78
I850
sg79
(dp195
I845
S'            if self.__address is not None:'
p196
sI846
S'                kwargs["address"] = self.__address'
p197
sI847
S''
sI848
S'            try:'
p198
sI849
S'                response = client._send_message_with_response(operation,'
p199
sI850
S'                                                              **kwargs)'
p200
sI851
S'                self.__address = response.address'
p201
sI852
S'                if self.__exhaust:'
p202
sI853
S"                    # 'response' is an ExhaustResponse."
p203
sI854
S'                    self.__exhaust_mgr = _SocketManager(response.socket_info,'
p204
ssg91
S'(self=<pymongo.cursor.Cursor object>, operation=<pymongo.message._Query object>)'
p205
sg93
S'__send_message'
p206
sa(dp207
g70
S'D:\\DevTools\\Anaconda2\\lib\\site-packages\\pymongo\\mongo_client.py'
p208
sg72
(dp209
S'topology.select_server'
p210
S'<bound method Topology.select_server of <pymongo.topology.Topology object>>'
p211
sS'selector'
p212
S'Primary()'
p213
sS'topology'
p214
S'<pymongo.topology.Topology object>'
p215
sS'server'
p216
g113
ssg78
I827
sg79
(dp217
I822
S'            if not server:'
p218
sI823
S"                raise AutoReconnect('server %s:%d no longer available'"
p219
sI824
S'                                    % address)'
p220
sI825
S'        else:'
p221
sI826
S'            selector = read_preference or writable_server_selector'
p222
sI827
S'            server = topology.select_server(selector)'
p223
sI828
S''
sI829
S"        # A _Query's slaveOk bit is already set for queries with non-primary"
p224
sI830
S'        # read preference. If this is a direct connection to a mongod, override'
p225
sI831
S'        # and *always* set the slaveOk bit. See bullet point 2 in'
p226
ssg91
S"(self=MongoClient(host=['localhost:27017'], document_class=dict, tz_aware=False, connect=True), operation=<pymongo.message._Query object>, read_preference=Primary(), exhaust=False, address=None)"
p227
sg93
S'_send_message_with_response'
p228
sa(dp229
g70
S'D:\\DevTools\\Anaconda2\\lib\\site-packages\\pymongo\\topology.py'
p230
sg72
(dp231
S'address'
p232
S'None'
p233
ssg78
I210
sg79
(dp234
I205
S'                      server_selection_timeout=None,'
p235
sI206
S'                      address=None):'
p236
sI207
S'        """Like select_servers, but choose a random server if several match."""'
p237
sI208
S'        return random.choice(self.select_servers(selector,'
p238
sI209
S'                                                 server_selection_timeout,'
p239
sI210
S'                                                 address))'
p240
sI211
S''
sI212
S'    def select_server_by_address(self, address,'
p241
sI213
S'                                 server_selection_timeout=None):'
p242
sI214
S'        """Return a Server for "address", reconnecting if necessary.'
p243
ssg91
S'(self=<pymongo.topology.Topology object>, selector=Primary(), server_selection_timeout=None, address=None)'
p244
sg93
S'select_server'
p245
sa(dp246
g70
S'D:\\DevTools\\Anaconda2\\lib\\site-packages\\pymongo\\topology.py'
p247
sg72
(dp248
S'self'
p249
S'<pymongo.topology.Topology object>'
p250
sS'self._error_message'
p251
S'<bound method Topology._error_message of <pymongo.topology.Topology object>>'
p252
sS'selector'
p253
g213
ssg78
I186
sg79
(dp254
I181
S''
sI182
S'            while not server_descriptions:'
p255
sI183
S'                # No suitable servers.'
p256
sI184
S'                if server_timeout == 0 or now > end_time:'
p257
sI185
S'                    raise ServerSelectionTimeoutError('
p258
sI186
S'                        self._error_message(selector))'
p259
sI187
S''
sI188
S'                self._ensure_opened()'
p260
sI189
S'                self._request_check_all()'
p261
sI190
S''
ssg91
S'(self=<pymongo.topology.Topology object>, selector=Primary(), server_selection_timeout=None, address=None)'
p262
sg93
S'select_servers'
p263
sasS'pyver'
p264
S'Python 2.7.12: D:\\DevTools\\Anaconda2\\python.exe (prefix: D:\\DevTools\\Anaconda2)'
p265
sS'session'
p266
g65
(S's\x1a\x00\x00\x00<div><table></table></div>'
tRp267
sS'etype'
p268
S"<class 'pymongo.errors.ServerSelectionTimeoutError'>"
p269
sS'date'
p270
S'Sat Oct 22 12:51:19 2016'
p271
sS'response'
p272
g65
(S's-?\x00\x00<div><table><tr><td style="font-weight:bold;vertical-align:top;">body</td><td style="vertical-align:top;">:</td><td><div>&lt;cStringIO.StringO object at 0x000000000477CD50&gt;</div></td></tr><tr><td style="font-weight:bold;vertical-align:top;">cookies</td><td style="vertical-align:top;">:</td><td><div><table><tr><td style="font-weight:bold;vertical-align:top;">session_id_twitter_analysis_app</td><td style="vertical-align:top;">:</td><td><div>127.0.0.1-abc70d8a-a0ab-42eb-90e1-ea82c2b0bfaa<table><tr><td style="font-weight:bold;vertical-align:top;">comment</td><td style="vertical-align:top;">:</td><td><div></div></td></tr><tr><td style="font-weight:bold;vertical-align:top;">domain</td><td style="vertical-align:top;">:</td><td><div></div></td></tr><tr><td style="font-weight:bold;vertical-align:top;">expires</td><td style="vertical-align:top;">:</td><td><div></div></td></tr><tr><td style="font-weight:bold;vertical-align:top;">httponly</td><td style="vertical-align:top;">:</td><td><div></div></td></tr><tr><td style="font-weight:bold;vertical-align:top;">max-age</td><td style="vertical-align:top;">:</td><td><div></div></td></tr><tr><td style="font-weight:bold;vertical-align:top;">path</td><td style="vertical-align:top;">:</td><td><div>/</div></td></tr><tr><td style="font-weight:bold;vertical-align:top;">secure</td><td style="vertical-align:top;">:</td><td><div></div></td></tr><tr><td style="font-weight:bold;vertical-align:top;">version</td><td style="vertical-align:top;">:</td><td><div></div></td></tr></table></div></td></tr></table></div></td></tr><tr><td style="font-weight:bold;vertical-align:top;">delimiters</td><td style="vertical-align:top;">:</td><td><div><table><tr><td><div>{{</div></td></tr><tr><td><div>}}</div></td></tr></table></div></td></tr><tr><td style="font-weight:bold;vertical-align:top;">files</td><td style="vertical-align:top;">:</td><td><div><table></table></div></td></tr><tr><td style="font-weight:bold;vertical-align:top;">flash</td><td style="vertical-align:top;">:</td><td><div></div></td></tr><tr><td style="font-weight:bold;vertical-align:top;">form_label_separator</td><td style="vertical-align:top;">:</td><td><div></div></td></tr><tr><td style="font-weight:bold;vertical-align:top;">formstyle</td><td style="vertical-align:top;">:</td><td><div>bootstrap3_inline</div></td></tr><tr><td style="font-weight:bold;vertical-align:top;">generic_patterns</td><td style="vertical-align:top;">:</td><td><div><table><tr><td><div>*</div></td></tr></table></div></td></tr><tr><td style="font-weight:bold;vertical-align:top;">google_analytics_id</td><td style="vertical-align:top;">:</td><td><div>None</div></td></tr><tr><td style="font-weight:bold;vertical-align:top;">headers</td><td style="vertical-align:top;">:</td><td><div><table><tr><td style="font-weight:bold;vertical-align:top;">X-Powered-By</td><td style="vertical-align:top;">:</td><td><div>web2py</div></td></tr></table></div></td></tr><tr><td style="font-weight:bold;vertical-align:top;">logo</td><td style="vertical-align:top;">:</td><td><div><a class="navbar-brand" href="http://www.web2py.com/" id="web2py-logo"><b>web<span>2</span>py</b>&trade;&nbsp;</a></div></td></tr><tr><td style="font-weight:bold;vertical-align:top;">menu</td><td style="vertical-align:top;">:</td><td><div><table><tr><td><div><table><tr><td><div>Home</div></td></tr><tr><td><div>False</div></td></tr><tr><td><div>/twitter_analysis_app/default/index</div></td></tr><tr><td><div><table></table></div></td></tr></table></div></td></tr><tr><td><div><table><tr><td><div>My Sites</div></td></tr><tr><td><div>False</div></td></tr><tr><td><div>/admin/default/site</div></td></tr></table></div></td></tr><tr><td><div><table><tr><td><div>\xe8\xaf\xa5\xe5\xba\x94\xe7\x94\xa8</div></td></tr><tr><td><div>False</div></td></tr><tr><td><div>#</div></td></tr><tr><td><div><table><tr><td><div><table><tr><td><div>Design</div></td></tr><tr><td><div>False</div></td></tr><tr><td><div>/admin/default/design/twitter_analysis_app</div></td></tr></table></div></td></tr><tr><td><div><li class="divider"></li></div></td></tr><tr><td><div><table><tr><td><div>\xe6\x8e\xa7\xe4\xbb\xb6</div></td></tr><tr><td><div>False</div></td></tr><tr><td><div>/admin/default/edit/twitter_analysis_app/controllers/default.py</div></td></tr></table></div></td></tr><tr><td><div><table><tr><td><div>\xe6\x9f\xa5\xe7\x9c\x8b</div></td></tr><tr><td><div>False</div></td></tr><tr><td><div>/admin/default/edit/twitter_analysis_app/views/default/index.html</div></td></tr></table></div></td></tr><tr><td><div><table><tr><td><div>\xe6\x95\xb0\xe6\x8d\xae\xe5\xba\x93\xe6\xa8\xa1\xe5\x9e\x8b</div></td></tr><tr><td><div>False</div></td></tr><tr><td><div>/admin/default/edit/twitter_analysis_app/models/db.py</div></td></tr></table></div></td></tr><tr><td><div><table><tr><td><div>\xe8\x8f\x9c\xe5\x8d\x95\xe6\xa8\xa1\xe5\x9e\x8b(menu)</div></td></tr><tr><td><div>False</div></td></tr><tr><td><div>/admin/default/edit/twitter_analysis_app/models/menu.py</div></td></tr></table></div></td></tr><tr><td><div><table><tr><td><div>Config.ini</div></td></tr><tr><td><div>False</div></td></tr><tr><td><div>/admin/default/edit/twitter_analysis_app/private/appconfig.ini</div></td></tr></table></div></td></tr><tr><td><div><table><tr><td><div>\xe7\xbd\x91\xe9\xa1\xb5\xe5\xb8\x83\xe5\xb1\x80</div></td></tr><tr><td><div>False</div></td></tr><tr><td><div>/admin/default/edit/twitter_analysis_app/views/layout.html</div></td></tr></table></div></td></tr><tr><td><div><table><tr><td><div>\xe7\xbd\x91\xe9\xa1\xb5\xe6\xa0\xb7\xe5\xbc\x8f\xe8\xa1\xa8</div></td></tr><tr><td><div>False</div></td></tr><tr><td><div>/admin/default/edit/twitter_analysis_app/static/css/web2py-bootstrap3.css</div></td></tr></table></div></td></tr><tr><td><div><table><tr><td><div>\xe6\x95\xb0\xe6\x8d\xae\xe5\xba\x93</div></td></tr><tr><td><div>False</div></td></tr><tr><td><div>/twitter_analysis_app/appadmin/index</div></td></tr></table></div></td></tr><tr><td><div><table><tr><td><div>Errors</div></td></tr><tr><td><div>False</div></td></tr><tr><td><div>/admin/default/errors/twitter_analysis_app</div></td></tr></table></div></td></tr><tr><td><div><table><tr><td><div>\xe5\x85\xb3\xe4\xba\x8e</div></td></tr><tr><td><div>False</div></td></tr><tr><td><div>/admin/default/about/twitter_analysis_app</div></td></tr></table></div></td></tr></table></div></td></tr></table></div></td></tr><tr><td><div><table><tr><td><div>web2py.com</div></td></tr><tr><td><div>False</div></td></tr><tr><td><div>#</div></td></tr><tr><td><div><table><tr><td><div><table><tr><td><div>\xe4\xb8\x8b\xe8\xbd\xbd</div></td></tr><tr><td><div>False</div></td></tr><tr><td><div>http://www.web2py.com/examples/default/download</div></td></tr></table></div></td></tr><tr><td><div><table><tr><td><div>Support</div></td></tr><tr><td><div>False</div></td></tr><tr><td><div>http://www.web2py.com/examples/default/support</div></td></tr></table></div></td></tr><tr><td><div><table><tr><td><div>Demo</div></td></tr><tr><td><div>False</div></td></tr><tr><td><div>http://web2py.com/demo_admin</div></td></tr></table></div></td></tr><tr><td><div><table><tr><td><div>Quick Examples</div></td></tr><tr><td><div>False</div></td></tr><tr><td><div>http://web2py.com/examples/default/examples</div></td></tr></table></div></td></tr><tr><td><div><table><tr><td><div>FAQ</div></td></tr><tr><td><div>False</div></td></tr><tr><td><div>http://web2py.com/AlterEgo</div></td></tr></table></div></td></tr><tr><td><div><table><tr><td><div>\xe8\xa7\x86\xe9\xa2\x91</div></td></tr><tr><td><div>False</div></td></tr><tr><td><div>http://www.web2py.com/examples/default/videos/</div></td></tr></table></div></td></tr><tr><td><div><table><tr><td><div>Free Applications</div></td></tr><tr><td><div>False</div></td></tr><tr><td><div>http://web2py.com/appliances</div></td></tr></table></div></td></tr><tr><td><div><table><tr><td><div>Plugins</div></td></tr><tr><td><div>False</div></td></tr><tr><td><div>http://web2py.com/plugins</div></td></tr></table></div></td></tr><tr><td><div><table><tr><td><div>Recipes</div></td></tr><tr><td><div>False</div></td></tr><tr><td><div>http://web2pyslices.com/</div></td></tr></table></div></td></tr></table></div></td></tr></table></div></td></tr><tr><td><div><table><tr><td><div>Documentation</div></td></tr><tr><td><div>False</div></td></tr><tr><td><div>#</div></td></tr><tr><td><div><table><tr><td><div><table><tr><td><div>Online book</div></td></tr><tr><td><div>False</div></td></tr><tr><td><div>http://www.web2py.com/book</div></td></tr></table></div></td></tr><tr><td><div><li class="divider"></li></div></td></tr><tr><td><div><table><tr><td><div>Preface</div></td></tr><tr><td><div>False</div></td></tr><tr><td><div>http://www.web2py.com/book/default/chapter/00</div></td></tr></table></div></td></tr><tr><td><div><table><tr><td><div>Introduction</div></td></tr><tr><td><div>False</div></td></tr><tr><td><div>http://www.web2py.com/book/default/chapter/01</div></td></tr></table></div></td></tr><tr><td><div><table><tr><td><div>Python</div></td></tr><tr><td><div>False</div></td></tr><tr><td><div>http://www.web2py.com/book/default/chapter/02</div></td></tr></table></div></td></tr><tr><td><div><table><tr><td><div>\xe6\xa6\x82\xe8\xa7\x88</div></td></tr><tr><td><div>False</div></td></tr><tr><td><div>http://www.web2py.com/book/default/chapter/03</div></td></tr></table></div></td></tr><tr><td><div><table><tr><td><div>The Core</div></td></tr><tr><td><div>False</div></td></tr><tr><td><div>http://www.web2py.com/book/default/chapter/04</div></td></tr></table></div></td></tr><tr><td><div><table><tr><td><div>\xe8\xa7\x86\xe5\x9b\xbe</div></td></tr><tr><td><div>False</div></td></tr><tr><td><div>http://www.web2py.com/book/default/chapter/05</div></td></tr></table></div></td></tr><tr><td><div><table><tr><td><div>\xe6\x95\xb0\xe6\x8d\xae\xe5\xba\x93</div></td></tr><tr><td><div>False</div></td></tr><tr><td><div>http://www.web2py.com/book/default/chapter/06</div></td></tr></table></div></td></tr><tr><td><div><table><tr><td><div>Forms and Validators</div></td></tr><tr><td><div>False</div></td></tr><tr><td><div>http://www.web2py.com/book/default/chapter/07</div></td></tr></table></div></td></tr><tr><td><div><table><tr><td><div>Email and SMS</div></td></tr><tr><td><div>False</div></td></tr><tr><td><div>http://www.web2py.com/book/default/chapter/08</div></td></tr></table></div></td></tr><tr><td><div><table><tr><td><div>Access Control</div></td></tr><tr><td><div>False</div></td></tr><tr><td><div>http://www.web2py.com/book/default/chapter/09</div></td></tr></table></div></td></tr><tr><td><div><table><tr><td><div>Services</div></td></tr><tr><td><div>False</div></td></tr><tr><td><div>http://www.web2py.com/book/default/chapter/10</div></td></tr></table></div></td></tr><tr><td><div><table><tr><td><div>Ajax Recipes</div></td></tr><tr><td><div>False</div></td></tr><tr><td><div>http://www.web2py.com/book/default/chapter/11</div></td></tr></table></div></td></tr><tr><td><div><table><tr><td><div>Components and Plugins</div></td></tr><tr><td><div>False</div></td></tr><tr><td><div>http://www.web2py.com/book/default/chapter/12</div></td></tr></table></div></td></tr><tr><td><div><table><tr><td><div>Deployment Recipes</div></td></tr><tr><td><div>False</div></td></tr><tr><td><div>http://www.web2py.com/book/default/chapter/13</div></td></tr></table></div></td></tr><tr><td><div><table><tr><td><div>Other Recipes</div></td></tr><tr><td><div>False</div></td></tr><tr><td><div>http://www.web2py.com/book/default/chapter/14</div></td></tr></table></div></td></tr><tr><td><div><table><tr><td><div>Helping web2py</div></td></tr><tr><td><div>False</div></td></tr><tr><td><div>http://www.web2py.com/book/default/chapter/15</div></td></tr></table></div></td></tr><tr><td><div><table><tr><td><div>Buy web2py\'s book</div></td></tr><tr><td><div>False</div></td></tr><tr><td><div>http://stores.lulu.com/web2py</div></td></tr></table></div></td></tr></table></div></td></tr></table></div></td></tr><tr><td><div><table><tr><td><div>Community</div></td></tr><tr><td><div>False</div></td></tr><tr><td><div>None</div></td></tr><tr><td><div><table><tr><td><div><table><tr><td><div>Groups</div></td></tr><tr><td><div>False</div></td></tr><tr><td><div>http://www.web2py.com/examples/default/usergroups</div></td></tr></table></div></td></tr><tr><td><div><table><tr><td><div>Twitter</div></td></tr><tr><td><div>False</div></td></tr><tr><td><div>http://twitter.com/web2py</div></td></tr></table></div></td></tr><tr><td><div><table><tr><td><div>Live Chat</div></td></tr><tr><td><div>False</div></td></tr><tr><td><div>http://webchat.freenode.net/?channels=web2py</div></td></tr></table></div></td></tr></table></div></td></tr></table></div></td></tr></table></div></td></tr><tr><td style="font-weight:bold;vertical-align:top;">meta</td><td style="vertical-align:top;">:</td><td><div><table><tr><td style="font-weight:bold;vertical-align:top;">author</td><td style="vertical-align:top;">:</td><td><div>Your Name &lt;you@example.com&gt;</div></td></tr><tr><td style="font-weight:bold;vertical-align:top;">description</td><td style="vertical-align:top;">:</td><td><div>a cool new app</div></td></tr><tr><td style="font-weight:bold;vertical-align:top;">generator</td><td style="vertical-align:top;">:</td><td><div>Web2py Web Framework</div></td></tr><tr><td style="font-weight:bold;vertical-align:top;">keywords</td><td style="vertical-align:top;">:</td><td><div><table><tr><td><div>web2py</div></td></tr><tr><td><div>python</div></td></tr><tr><td><div>framework</div></td></tr></table></div></td></tr></table></div></td></tr><tr><td style="font-weight:bold;vertical-align:top;">models_to_run</td><td style="vertical-align:top;">:</td><td><div><table><tr><td><div>^\\w+\\.py$</div></td></tr><tr><td><div>^default/\\w+\\.py$</div></td></tr><tr><td><div>^default/index/\\w+\\.py$</div></td></tr></table></div></td></tr><tr><td style="font-weight:bold;vertical-align:top;">postprocessing</td><td style="vertical-align:top;">:</td><td><div><table></table></div></td></tr><tr><td style="font-weight:bold;vertical-align:top;">session_client</td><td style="vertical-align:top;">:</td><td><div>127.0.0.1</div></td></tr><tr><td style="font-weight:bold;vertical-align:top;">session_cookie_compression_level</td><td style="vertical-align:top;">:</td><td><div>None</div></td></tr><tr><td style="font-weight:bold;vertical-align:top;">session_cookie_expires</td><td style="vertical-align:top;">:</td><td><div>None</div></td></tr><tr><td style="font-weight:bold;vertical-align:top;">session_data_name</td><td style="vertical-align:top;">:</td><td><div>session_data_twitter_analysis_app</div></td></tr><tr><td style="font-weight:bold;vertical-align:top;">session_file</td><td style="vertical-align:top;">:</td><td><div>None</div></td></tr><tr><td style="font-weight:bold;vertical-align:top;">session_filename</td><td style="vertical-align:top;">:</td><td><div>D:\\Workspaces\\MS_Project\\web2py\\applications\\twitter_analysis_app\\sessions\\127.0.0.1-abc70d8a-a0ab-42eb-90e1-ea82c2b0bfaa</div></td></tr><tr><td style="font-weight:bold;vertical-align:top;">session_hash</td><td style="vertical-align:top;">:</td><td><div>c0762cbf4baf7f9af97c051e7fcb8083</div></td></tr><tr><td style="font-weight:bold;vertical-align:top;">session_id</td><td style="vertical-align:top;">:</td><td><div>127.0.0.1-abc70d8a-a0ab-42eb-90e1-ea82c2b0bfaa</div></td></tr><tr><td style="font-weight:bold;vertical-align:top;">session_id_name</td><td style="vertical-align:top;">:</td><td><div>session_id_twitter_analysis_app</div></td></tr><tr><td style="font-weight:bold;vertical-align:top;">session_masterapp</td><td style="vertical-align:top;">:</td><td><div>twitter_analysis_app</div></td></tr><tr><td style="font-weight:bold;vertical-align:top;">session_new</td><td style="vertical-align:top;">:</td><td><div>True</div></td></tr><tr><td style="font-weight:bold;vertical-align:top;">session_storage_type</td><td style="vertical-align:top;">:</td><td><div>file</div></td></tr><tr><td style="font-weight:bold;vertical-align:top;">status</td><td style="vertical-align:top;">:</td><td><div>200</div></td></tr><tr><td style="font-weight:bold;vertical-align:top;">subtitle</td><td style="vertical-align:top;">:</td><td><div></div></td></tr><tr><td style="font-weight:bold;vertical-align:top;">title</td><td style="vertical-align:top;">:</td><td><div>Twitter Analysis App</div></td></tr><tr><td style="font-weight:bold;vertical-align:top;">view</td><td style="vertical-align:top;">:</td><td><div>default/index.html</div></td></tr></table></div>'
tRp273
sS'locals'
p274
(dp275
S'server_timeout'
p276
S'30'
p277
sS'server_descriptions'
p278
S'[]'
p279
sS'self'
p280
S'<pymongo.topology.Topology object>'
p281
sS'selector'
p282
g213
sS'end_time'
p283
S'1477165879.545'
p284
sS'server_selection_timeout'
p285
S'None'
p286
sS'address'
p287
S'None'
p288
sS'now'
p289
S'1477165879.684'
p290
sssS'traceback'
p291
S'Traceback (most recent call last):\n  File "D:\\Workspaces\\MS_Project\\web2py\\gluon\\restricted.py", line 227, in restricted\n    exec ccode in environment\n  File "D:\\Workspaces\\MS_Project\\web2py\\applications\\twitter_analysis_app\\controllers/default.py", line 179, in <module>\n  File "D:\\Workspaces\\MS_Project\\web2py\\gluon\\globals.py", line 417, in <lambda>\n    self._caller = lambda f: f()\n  File "D:\\Workspaces\\MS_Project\\web2py\\applications\\twitter_analysis_app\\controllers/default.py", line 84, in index\n    } for item in collection.find()]\n  File "D:\\DevTools\\Anaconda2\\lib\\site-packages\\pymongo\\cursor.py", line 1090, in next\n    if len(self.__data) or self._refresh():\n  File "D:\\DevTools\\Anaconda2\\lib\\site-packages\\pymongo\\cursor.py", line 1012, in _refresh\n    self.__read_concern))\n  File "D:\\DevTools\\Anaconda2\\lib\\site-packages\\pymongo\\cursor.py", line 850, in __send_message\n    **kwargs)\n  File "D:\\DevTools\\Anaconda2\\lib\\site-packages\\pymongo\\mongo_client.py", line 827, in _send_message_with_response\n    server = topology.select_server(selector)\n  File "D:\\DevTools\\Anaconda2\\lib\\site-packages\\pymongo\\topology.py", line 210, in select_server\n    address))\n  File "D:\\DevTools\\Anaconda2\\lib\\site-packages\\pymongo\\topology.py", line 186, in select_servers\n    self._error_message(selector))\nServerSelectionTimeoutError: localhost:27017: [Errno 10061] No connection could be made because the target machine actively refused it\n'
p292
s.