(dp1
S'output'
p2
S"<type 'exceptions.IOError'> [Errno 2] No such file or directory: 'twitter_analysis_app\\\\StopWsord.txt'"
p3
sS'layer'
p4
S'D:\\Workspaces\\Tweet-Streaming-Data-Analysis-Service\\web2py\\applications\\twitter_analysis_app\\controllers/default.py'
p5
sS'code'
p6
S'# -*- coding: utf-8 -*-\n# this file is released under public domain and you can use without limitations\n\n# -------------------------------------------------------------------------\n# This is a sample controller\n# - index is the default action of any application\n# - user is required for authentication and authorization\n# - download is for downloading files uploaded in the db (does streaming)\n# -------------------------------------------------------------------------\nimport re\n\nimport pandas as pd\nimport tweepy\nfrom pymongo import MongoClient\n\nimport nltk\nfrom nltk.corpus import treebank\n\ncollection = MongoClient(\'localhost\', 27017)["tweets"]["StreamingDemo"]\n\n# collection = None\nconsumer_key = "8pCg0f2Ih81PSpbH5XQNptWPQ"\nconsumer_secret = "ghSdXGQKYABWdCn44TNizjvBt05l2mqeQtveBrBCkbVFGtB1iB"\n\naccess_token = "783900324704641024-fcqOlSez6zgnx3ArAq5jIDso736hT1V"\naccess_token_secret = "mXO8CSnhGP1jwBbBGop6zZTgmau4ywO7HtrF44MwBKAGZ"\n\n\nauth = tweepy.OAuthHandler(consumer_key, consumer_secret)\nauth.set_access_token(access_token, access_token_secret)\n\napi = tweepy.API(auth)\nmyStream = None\n\n\ndef get_api():\n    consumer_key = "8pCg0f2Ih81PSpbH5XQNptWPQ"\n    consumer_secret = "ghSdXGQKYABWdCn44TNizjvBt05l2mqeQtveBrBCkbVFGtB1iB"\n\n    access_token = "783900324704641024-fcqOlSez6zgnx3ArAq5jIDso736hT1V"\n    access_token_secret = "mXO8CSnhGP1jwBbBGop6zZTgmau4ywO7HtrF44MwBKAGZ"\n\n    auth = tweepy.OAuthHandler(consumer_key, consumer_secret)\n    auth.set_access_token(access_token, access_token_secret)\n\n    api = tweepy.API(auth)\n\n    return api\n\n\ndef get_collection():\n    collection = MongoClient(\'localhost\', 27017)["tweets"]["StreamingDemo"]\n    return collection\n\n\nclass MyStreamListener(tweepy.StreamListener):\n    global collection\n    global myStream\n    count = 1\n    goal = 1000 - collection.count()\n\n    def on_status(self, status):\n        self.count += 1\n        print self.count\n        collection.insert_one(status._json)\n        print collection\n        if self.count > 1000:\n            myStream.disconnect()\n            print "Twitter stream has been disconnected successfully."\n\nclass Keyword:\n    def __init__(self):\n        self.stopWordList = set()          # stop word list\n        f = open(\'twitter_analysis_app\\StopWsord.txt\', \'r\')\n        for line in f:\n            line = line[:-1]            # remove \'\\n\'\n            self.stopWordList.add(line)\n\n    def getKeyword(self, sentence):\n        words = []\n        tokens = nltk.word_tokenize(sentence)\n        tagged = nltk.pos_tag(tokens)\n\n        # extract noun\n        # for tag in tagged:\n        #     word = tag[0].lower()\n        #     if "NN" in tag[1] and word not in self.stopWordList:\n        #         words.append(word)\n\n        # extract noun and noun phrase\n        word = ""\n        index = 0\n        check = 0\n        while(index < len(tagged)):\n            if "NN" in tagged[index][1]:\n                word += tagged[index][0].lower()\n                check = index\n                while index+1 < len(tagged) and "NN" in tagged[index+1][1]:\n                    word += " " + tagged[index+1][0].lower()\n                    index += 1\n                words.append(word)\n            index += 1\n            word = ""\n\n        return words\n\ndef update_collection(search_word):\n    global myStream\n    print \'Start to update the collection :\'\n    myStream = tweepy.Stream(auth=api.auth, listener=MyStreamListener())\n    myStream.filter(track=[search_word])\n\n"""\ndef index():\n\n    example action using the internationalization operator T and flash\n    rendered by views/default/index.html or views/generic.html\n\n    if you need a simple wiki simply replace the two lines below with:\n    return auth.wiki()\n\n    collection = get_collection()\n    dataset = [{"created_at": item["created_at"],\n                "text": item["text"],\n                "user": "@%s" % item["user"]["screen_name"],\n                "source": item["source"],\n                "lang": item["lang"],\n                } for item in collection.find()]\n\n    dataset = pd.DataFrame(dataset)\n    dataset.source_name = dataset.source.apply(get_source_name)\n    source_counts = dataset.source_name.value_counts().sort_values()[-10:]\n    lang_counts = dataset.lang.value_counts().sort_values()\n    source_info = {}\n    for s in source_counts.iteritems():\n        source_info[s[0]] = s[1]\n    return dict(source_info=source_info)\n"""\n\ndef index():\n    return dict()\n\ndef get_source_name(x):\n    value = re.findall(pattern="<[^>]+>([^<]+)</a>", string=x)\n    if len(value) > 0:\n        return value[0]\n    else:\n        return ""\n\n\ndef get_chart_device():\n    global collection\n    # collection2 = MongoClient(\'localhost\', 27017)["tweets"]["Trump"]\n    # print \'The size of the collection is :\'\n    # print collection2.count()\n    search_word = request.vars.search_text\n    print search_word\n\n    collection= MongoClient(\'localhost\', 27017)["tweets"][search_word]\n    print collection.count()\n    if collection.count() == 0:\n        update_collection(search_word)\n        print \'End of updating collection :\'\n    print "get_chart_data"\n    # collection = get_collection()\n    dataset = [{"created_at": item["created_at"],\n                "text": item["text"],\n                "user": "@%s" % item["user"]["screen_name"],\n                "source": item["source"],\n                "lang": item["lang"],\n                "filter_level": item["filter_level"],\n                } for item in collection.find()]\n\n    dataset = pd.DataFrame(dataset)\n    dataset.source_name = dataset.source.apply(get_source_name)\n    source_counts = dataset.source_name.value_counts().sort_values()[-10:]\n    lang_counts = dataset.lang.value_counts().sort_values()[-5:]\n    filter_level_counts = dataset.filter_level.value_counts().sort_values()\n    print "------------ The language distribution is : ------------------"\n    print lang_counts\n    print "---------- End of the language distribution is : -------------"\n    print "------------ The filter_level distribution is : ------------------"\n    print filter_level_counts\n    print "---------- End of the filter_level distribution is : -------------"\n    data = []\n    for s in source_counts.iteritems():\n        data.insert(0, {\n            "Type": s[0],\n            "tweets": s[1].item()\n        })\n        print type(s[1].item())\n    print data\n    json_data = response.json(data)\n    print json_data\n    return response.json(data)\n    # json_data = json.dumps(data)\n    # print json_data\n    # return json.dumps(data)\n\n\ndef get_chart_lang():\n    print "get_chart_data"\n    collection = get_collection()\n    dataset = [{"created_at": item["created_at"],\n                "text": item["text"],\n                "user": "@%s" % item["user"]["screen_name"],\n                "source": item["source"],\n                "lang": item["lang"],\n                "filter_level": item["filter_level"],\n                } for item in collection.find()]\n\n    dataset = pd.DataFrame(dataset)\n    lang_counts = dataset.lang.value_counts().sort_values()[-5:]\n    filter_level_counts = dataset.filter_level.value_counts().sort_values()\n    print "------------ The language distribution is : ------------------"\n    print lang_counts\n    print "---------- End of the language distribution is : -------------"\n    print "------------ The filter_level distribution is : ------------------"\n    print filter_level_counts\n    print "---------- End of the filter_level distribution is : -------------"\n    data = []\n    for s in lang_counts.iteritems():\n        data.insert(0, {\n            "Type": s[0],\n            "tweets": s[1].item()\n        })\n        print type(s[1].item())\n    print data\n    json_data = response.json(data)\n    print json_data\n    return response.json(data)\n    # json_data = json.dumps(data)\n    # print json_data\n    # return json.dumps(data)\n\n\ndef get_chart_hashtag():\n    top_k_hashtag = {}\n    for item in collection.find():\n        try:\n            hashtags = item[\'entities\'][\'hashtags\']\n            print hashtags\n            for hashtag in hashtags:\n                text = hashtag[\'text\'].lower()\n                print text\n                if text not in top_k_hashtag:\n                    top_k_hashtag[text] = 1\n                    print \'---1---\'\n                else:\n                    print \'---+---\'\n                    temp = top_k_hashtag.get(text)\n                    temp += 1\n                    top_k_hashtag[text] = temp\n        except:\n            print \'error happens\'\n            pass\n    top_tree = sorted(top_k_hashtag.iteritems(), key=lambda x: x[1], reverse=True)\n    data = []\n    for item in top_tree[:10]:\n        data.insert(0, {\n            "Type": item[1],\n            "tweets": str(item[0])\n        })\n    print data\n    return \'ok\'\n\n\ndef process_location_analysis():\n    global collection\n\n    print \'Start location analysis : \'\n    print collection.count()\n\n    dataset = [{"source": item["source"]\n                } for item in collection.find()]\n\n    dataset = pd.DataFrame(dataset)\n    dataset.source_name = dataset.source.apply(get_source_name)\n    result = dataset.source_name.value_counts().sort_values()[-10:]\n\n    data = []\n    for s in result.iteritems():\n        data.insert(0, {\n            "Type": s[0],\n            "tweets": s[1].item()\n        })\n\n    return data\n\n\ndef process_language_analysis():\n    global collection\n\n    dataset = [{"lang": item["lang"]\n                } for item in collection.find()]\n\n    dataset = pd.DataFrame(dataset)\n    result = dataset.lang.value_counts().sort_values()[-5:]\n\n    data = []\n    for s in result.iteritems():\n        data.insert(0, {\n            "Type": s[0],\n            "tweets": s[1].item()\n        })\n\n    return data\n\n\n"""\ndef process_hashtag_analysis():\n    global collection\n\n    top_k_hashtag = {}\n    for item in collection.find():\n        try:\n            hashtags = item[\'entities\'][\'hashtags\']\n            print \'Found the hashtag.\'\n            print hashtags\n            for hashtag in hashtags:\n                text = hashtag[\'text\'].lower()\n                print text\n                if text not in top_k_hashtag:\n                    top_k_hashtag[text] = 1\n                    print \'111111111\'\n                else:\n                    print \'2222222222\'\n                    temp = top_k_hashtag[text]\n                    print \'The current is : \' + temp\n                    temp = temp + 1\n                    top_k_hashtag[text] = temp\n        except:\n            print \'error happens\'\n            pass\n\n    data = []\n    top_sorted = sorted(top_k_hashtag.iteritems(), key=lambda x: x[1], reverse=True)\n    for item in top_sorted[:10]:\n        data.insert(0, {\n            "Type": str(item[0]),\n            "tweets": item[1]\n        })\n\n    return data\n"""\n\n\ndef process_hashtag_analysis():\n    global collection\n\n    top_k_hashtag = {}\n    for item in collection.find():\n        try:\n            hashtags = item[\'entities\'][\'hashtags\']\n            print \'Found the hashtag.\'\n            print hashtags\n            for hashtag in hashtags:\n                text = hashtag[\'text\'].lower()\n                print text\n                if text not in top_k_hashtag:\n                    top_k_hashtag[text] = 1\n                    print \'111111111\'\n                else:\n                    print \'2222222222\'\n                    temp = top_k_hashtag[text]\n                    print \'The current is : \' + str(temp)\n                    temp = temp + 1\n                    top_k_hashtag[text] = temp\n        except Exception as e:\n            print e.__doc__\n            print e.message\n            pass\n\n    data = []\n    top_sorted = sorted(top_k_hashtag.iteritems(), key=lambda x: x[1], reverse=False)\n    for item in top_sorted[-10:]:\n        data.insert(0, {\n            "Type": str(item[0]),\n            "tweets": item[1]\n        })\n\n    return data\n\n\ndef process_keyword_analysis():\n    global collection\n    print collection.count()\n    print collection\n    keyword = Keyword()\n    data = []\n\n    return data\n\n\n"""\ndef process_keyword_analysis():\n    global collection\n\n    print \'0\'\n    key_word = Keyword()\n    print \'--\'\n    word_frequency = {}\n    print \'1\'\n    for item in collection.find():\n        parsed_word = Keyword.getKeyword(key_word, item[\'text\'])\n        print \'2\'\n        for unicode_word in parsed_word:\n            try:\n                word = str(unicode_word)\n            except (UnicodeEncodeError):\n                pass\n            if word_frequency.has_key(word):\n                word_frequency[word] += 1\n            else:\n                word_frequency[word] = 1\n\n    data = []\n    top_sorted = sorted(word_frequency.iteritems(), key=lambda x: x[1], reverse=False)\n    for item in top_sorted[-10:]:\n        data.insert(0, {\n            "Type": str(item[0]),\n            "tweets": item[1]\n        })\n\n    return data\n"""\n\ndef get_chart_data():\n    global collection\n\n    search_word = request.vars.search_text\n    analysis_type = request.vars.type_of_analysis\n    print search_word\n    print analysis_type\n\n    collection = MongoClient(\'localhost\', 27017)["tweets"][search_word]\n    print collection.count()\n    if collection.count() < 1000:\n        update_collection(search_word)\n        print \'End of updating collection :\'\n    print "get_chart_data start : "\n\n    data = []\n    if analysis_type == \'Location\':\n        data = process_location_analysis()\n    elif analysis_type == \'Language\':\n        data = process_language_analysis()\n    elif analysis_type == \'Hashtag\':\n        data = process_hashtag_analysis()\n    elif analysis_type == \'Keyword\':\n        print \'start to analysis keyword.\'\n        data = process_keyword_analysis()\n\n    json_data = response.json(data)\n\n    print json_data\n    return response.json(data)\n    # json_data = json.dumps(data)\n    # print json_data\n    # return json.dumps(data)\n\ndef user():\n    """\n    exposes:\n    http://..../[app]/default/user/login\n    http://..../[app]/default/user/logout\n    http://..../[app]/default/user/register\n    http://..../[app]/default/user/profile\n    http://..../[app]/default/user/retrieve_password\n    http://..../[app]/default/user/change_password\n    http://..../[app]/default/user/bulk_register\n    use @auth.requires_login()\n        @auth.requires_membership(\'group name\')\n        @auth.requires_permission(\'read\',\'table name\',record_id)\n    to decorate functions that need access control\n    also notice there is http://..../[app]/appadmin/manage/auth to allow administrator to manage users\n    """\n    return dict(form=auth())\n\n\n@cache.action()\ndef download():\n    """\n    allows downloading of uploaded files\n    http://..../[app]/default/download/[filename]\n    """\n    return response.download(request, db)\n\n\ndef call():\n    """\n    exposes services. for example:\n    http://..../[app]/default/call/jsonrpc\n    decorate with @services.jsonrpc the functions to expose\n    supports xml, json, xmlrpc, jsonrpc, amfrpc, rss, csv\n    """\n    return service()\n\n\n\nresponse._vars=response._caller(get_chart_data)\n'
p7
sS'snapshot'
p8
(dp9
S'exception'
p10
(dp11
S'__getslice__'
p12
S"<method-wrapper '__getslice__' of exceptions.IOError object>"
p13
sS'__str__'
p14
S"<method-wrapper '__str__' of exceptions.IOError object>"
p15
sS'__reduce__'
p16
S'<built-in method __reduce__ of exceptions.IOError object>'
p17
sS'__dict__'
p18
S'{}'
p19
sS'__sizeof__'
p20
S'<built-in method __sizeof__ of exceptions.IOError object>'
p21
sS'__init__'
p22
S"<method-wrapper '__init__' of exceptions.IOError object>"
p23
sS'__setattr__'
p24
S"<method-wrapper '__setattr__' of exceptions.IOError object>"
p25
sS'__reduce_ex__'
p26
S'<built-in method __reduce_ex__ of exceptions.IOError object>'
p27
sS'__new__'
p28
S'<built-in method __new__ of type object>'
p29
sS'errno'
p30
S'2'
sS'__format__'
p31
S'<built-in method __format__ of exceptions.IOError object>'
p32
sS'__class__'
p33
S"<type 'exceptions.IOError'>"
p34
sS'filename'
p35
S"r'twitter_analysis_app\\StopWsord.txt'"
p36
sS'__doc__'
p37
S"'I/O operation failed.'"
p38
sS'__getitem__'
p39
S"<method-wrapper '__getitem__' of exceptions.IOError object>"
p40
sS'__setstate__'
p41
S'<built-in method __setstate__ of exceptions.IOError object>'
p42
sS'__getattribute__'
p43
S"<method-wrapper '__getattribute__' of exceptions.IOError object>"
p44
sS'args'
p45
S"(2, 'No such file or directory')"
p46
sS'__subclasshook__'
p47
S'<built-in method __subclasshook__ of type object>'
p48
sS'__unicode__'
p49
S'<built-in method __unicode__ of exceptions.IOError object>'
p50
sS'strerror'
p51
S"'No such file or directory'"
p52
sS'__delattr__'
p53
S"<method-wrapper '__delattr__' of exceptions.IOError object>"
p54
sS'__repr__'
p55
S"<method-wrapper '__repr__' of exceptions.IOError object>"
p56
sS'__hash__'
p57
S"<method-wrapper '__hash__' of exceptions.IOError object>"
p58
ssS'evalue'
p59
S"[Errno 2] No such file or directory: 'twitter_analysis_app\\\\StopWsord.txt'"
p60
sS'request'
p61
cgluon.html
XML_unpickle
p62
(S's\x97l\x00\x00<div><table><tr><td style="font-weight:bold;vertical-align:top;">ajax</td><td style="vertical-align:top;">:</td><td><div>True</div></td></tr><tr><td style="font-weight:bold;vertical-align:top;">application</td><td style="vertical-align:top;">:</td><td><div>twitter_analysis_app</div></td></tr><tr><td style="font-weight:bold;vertical-align:top;">args</td><td style="vertical-align:top;">:</td><td><div><table></table></div></td></tr><tr><td style="font-weight:bold;vertical-align:top;">cid</td><td style="vertical-align:top;">:</td><td><div>None</div></td></tr><tr><td style="font-weight:bold;vertical-align:top;">client</td><td style="vertical-align:top;">:</td><td><div>127.0.0.1</div></td></tr><tr><td style="font-weight:bold;vertical-align:top;">controller</td><td style="vertical-align:top;">:</td><td><div>default</div></td></tr><tr><td style="font-weight:bold;vertical-align:top;">cookies</td><td style="vertical-align:top;">:</td><td><div><table><tr><td style="font-weight:bold;vertical-align:top;">session_id_admin</td><td style="vertical-align:top;">:</td><td><div>127.0.0.1-fec92e1c-d5eb-463c-91ba-5ec5bc12849b<table><tr><td style="font-weight:bold;vertical-align:top;">comment</td><td style="vertical-align:top;">:</td><td><div></div></td></tr><tr><td style="font-weight:bold;vertical-align:top;">domain</td><td style="vertical-align:top;">:</td><td><div></div></td></tr><tr><td style="font-weight:bold;vertical-align:top;">expires</td><td style="vertical-align:top;">:</td><td><div></div></td></tr><tr><td style="font-weight:bold;vertical-align:top;">httponly</td><td style="vertical-align:top;">:</td><td><div></div></td></tr><tr><td style="font-weight:bold;vertical-align:top;">max-age</td><td style="vertical-align:top;">:</td><td><div></div></td></tr><tr><td style="font-weight:bold;vertical-align:top;">path</td><td style="vertical-align:top;">:</td><td><div></div></td></tr><tr><td style="font-weight:bold;vertical-align:top;">secure</td><td style="vertical-align:top;">:</td><td><div></div></td></tr><tr><td style="font-weight:bold;vertical-align:top;">version</td><td style="vertical-align:top;">:</td><td><div></div></td></tr></table></div></td></tr><tr><td style="font-weight:bold;vertical-align:top;">session_id_hw</td><td style="vertical-align:top;">:</td><td><div>3:d3a355e3-98ba-415a-a3b6-82680b4bac31<table><tr><td style="font-weight:bold;vertical-align:top;">comment</td><td style="vertical-align:top;">:</td><td><div></div></td></tr><tr><td style="font-weight:bold;vertical-align:top;">domain</td><td style="vertical-align:top;">:</td><td><div></div></td></tr><tr><td style="font-weight:bold;vertical-align:top;">expires</td><td style="vertical-align:top;">:</td><td><div></div></td></tr><tr><td style="font-weight:bold;vertical-align:top;">httponly</td><td style="vertical-align:top;">:</td><td><div></div></td></tr><tr><td style="font-weight:bold;vertical-align:top;">max-age</td><td style="vertical-align:top;">:</td><td><div></div></td></tr><tr><td style="font-weight:bold;vertical-align:top;">path</td><td style="vertical-align:top;">:</td><td><div></div></td></tr><tr><td style="font-weight:bold;vertical-align:top;">secure</td><td style="vertical-align:top;">:</td><td><div></div></td></tr><tr><td style="font-weight:bold;vertical-align:top;">version</td><td style="vertical-align:top;">:</td><td><div></div></td></tr></table></div></td></tr><tr><td style="font-weight:bold;vertical-align:top;">session_id_twitter_analysis_app</td><td style="vertical-align:top;">:</td><td><div>127.0.0.1-0dbb0ff7-e5d1-4d3f-80a7-a6576173b6e7<table><tr><td style="font-weight:bold;vertical-align:top;">comment</td><td style="vertical-align:top;">:</td><td><div></div></td></tr><tr><td style="font-weight:bold;vertical-align:top;">domain</td><td style="vertical-align:top;">:</td><td><div></div></td></tr><tr><td style="font-weight:bold;vertical-align:top;">expires</td><td style="vertical-align:top;">:</td><td><div></div></td></tr><tr><td style="font-weight:bold;vertical-align:top;">httponly</td><td style="vertical-align:top;">:</td><td><div></div></td></tr><tr><td style="font-weight:bold;vertical-align:top;">max-age</td><td style="vertical-align:top;">:</td><td><div></div></td></tr><tr><td style="font-weight:bold;vertical-align:top;">path</td><td style="vertical-align:top;">:</td><td><div></div></td></tr><tr><td style="font-weight:bold;vertical-align:top;">secure</td><td style="vertical-align:top;">:</td><td><div></div></td></tr><tr><td style="font-weight:bold;vertical-align:top;">version</td><td style="vertical-align:top;">:</td><td><div></div></td></tr></table></div></td></tr><tr><td style="font-weight:bold;vertical-align:top;">session_id_welcome</td><td style="vertical-align:top;">:</td><td><div>127.0.0.1-b30d4fef-335f-413c-9eff-a845e3f487a3<table><tr><td style="font-weight:bold;vertical-align:top;">comment</td><td style="vertical-align:top;">:</td><td><div></div></td></tr><tr><td style="font-weight:bold;vertical-align:top;">domain</td><td style="vertical-align:top;">:</td><td><div></div></td></tr><tr><td style="font-weight:bold;vertical-align:top;">expires</td><td style="vertical-align:top;">:</td><td><div></div></td></tr><tr><td style="font-weight:bold;vertical-align:top;">httponly</td><td style="vertical-align:top;">:</td><td><div></div></td></tr><tr><td style="font-weight:bold;vertical-align:top;">max-age</td><td style="vertical-align:top;">:</td><td><div></div></td></tr><tr><td style="font-weight:bold;vertical-align:top;">path</td><td style="vertical-align:top;">:</td><td><div></div></td></tr><tr><td style="font-weight:bold;vertical-align:top;">secure</td><td style="vertical-align:top;">:</td><td><div></div></td></tr><tr><td style="font-weight:bold;vertical-align:top;">version</td><td style="vertical-align:top;">:</td><td><div></div></td></tr></table></div></td></tr></table></div></td></tr><tr><td style="font-weight:bold;vertical-align:top;">env</td><td style="vertical-align:top;">:</td><td><div><table><tr><td style="font-weight:bold;vertical-align:top;">CONTENT_LENGTH</td><td style="vertical-align:top;">:</td><td><div>42</div></td></tr><tr><td style="font-weight:bold;vertical-align:top;">CONTENT_TYPE</td><td style="vertical-align:top;">:</td><td><div>application/x-www-form-urlencoded; charset=UTF-8</div></td></tr><tr><td style="font-weight:bold;vertical-align:top;">HTTP_ACCEPT</td><td style="vertical-align:top;">:</td><td><div>application/json, text/javascript, */*; q=0.01</div></td></tr><tr><td style="font-weight:bold;vertical-align:top;">HTTP_ACCEPT_ENCODING</td><td style="vertical-align:top;">:</td><td><div>gzip, deflate, br</div></td></tr><tr><td style="font-weight:bold;vertical-align:top;">HTTP_ACCEPT_LANGUAGE</td><td style="vertical-align:top;">:</td><td><div>zh-CN,zh;q=0.8</div></td></tr><tr><td style="font-weight:bold;vertical-align:top;">HTTP_CONNECTION</td><td style="vertical-align:top;">:</td><td><div>keep-alive</div></td></tr><tr><td style="font-weight:bold;vertical-align:top;">HTTP_CONTENT_LENGTH</td><td style="vertical-align:top;">:</td><td><div>42</div></td></tr><tr><td style="font-weight:bold;vertical-align:top;">HTTP_CONTENT_TYPE</td><td style="vertical-align:top;">:</td><td><div>application/x-www-form-urlencoded; charset=UTF-8</div></td></tr><tr><td style="font-weight:bold;vertical-align:top;">HTTP_COOKIE</td><td style="vertical-align:top;">:</td><td><div>session_id_hw=&quot;3:d3a355e3-98ba-415a-a3b6-82680b4bac31&quot;; session_id_welcome=127.0.0.1-b30d4fef-335f-413c-9eff-a845e3f487a3; session_id_admin=127.0.0.1-fec92e1c-d5eb-463c-91ba-5ec5bc12849b; session_id_twitter_analysis_app=127.0.0.1-0dbb0ff7-e5d1-4d3f-80a7-a6576173b6e7</div></td></tr><tr><td style="font-weight:bold;vertical-align:top;">HTTP_HOST</td><td style="vertical-align:top;">:</td><td><div>127.0.0.1:8080</div></td></tr><tr><td style="font-weight:bold;vertical-align:top;">HTTP_ORIGIN</td><td style="vertical-align:top;">:</td><td><div>http://127.0.0.1:8080</div></td></tr><tr><td style="font-weight:bold;vertical-align:top;">HTTP_REFERER</td><td style="vertical-align:top;">:</td><td><div>http://127.0.0.1:8080/twitter_analysis_app/default/index</div></td></tr><tr><td style="font-weight:bold;vertical-align:top;">HTTP_USER_AGENT</td><td style="vertical-align:top;">:</td><td><div>Mozilla/5.0 (Windows NT 10.0; Win64; x64) AppleWebKit/537.36 (KHTML, like Gecko) Chrome/54.0.2840.71 Safari/537.36</div></td></tr><tr><td style="font-weight:bold;vertical-align:top;">HTTP_X_REQUESTED_WITH</td><td style="vertical-align:top;">:</td><td><div>XMLHttpRequest</div></td></tr><tr><td style="font-weight:bold;vertical-align:top;">PATH_INFO</td><td style="vertical-align:top;">:</td><td><div>/twitter_analysis_app/default/get_chart_data</div></td></tr><tr><td style="font-weight:bold;vertical-align:top;">QUERY_STRING</td><td style="vertical-align:top;">:</td><td><div></div></td></tr><tr><td style="font-weight:bold;vertical-align:top;">REMOTE_ADDR</td><td style="vertical-align:top;">:</td><td><div>127.0.0.1</div></td></tr><tr><td style="font-weight:bold;vertical-align:top;">REMOTE_PORT</td><td style="vertical-align:top;">:</td><td><div>55791</div></td></tr><tr><td style="font-weight:bold;vertical-align:top;">REQUEST_METHOD</td><td style="vertical-align:top;">:</td><td><div>POST</div></td></tr><tr><td style="font-weight:bold;vertical-align:top;">SCRIPT_NAME</td><td style="vertical-align:top;">:</td><td><div></div></td></tr><tr><td style="font-weight:bold;vertical-align:top;">SERVER_NAME</td><td style="vertical-align:top;">:</td><td><div>DESKTOP-6LEIA3N</div></td></tr><tr><td style="font-weight:bold;vertical-align:top;">SERVER_PORT</td><td style="vertical-align:top;">:</td><td><div>8080</div></td></tr><tr><td style="font-weight:bold;vertical-align:top;">SERVER_PROTOCOL</td><td style="vertical-align:top;">:</td><td><div>HTTP/1.1</div></td></tr><tr><td style="font-weight:bold;vertical-align:top;">SERVER_SOFTWARE</td><td style="vertical-align:top;">:</td><td><div>Rocket 1.2.6</div></td></tr><tr><td style="font-weight:bold;vertical-align:top;">app_folders</td><td style="vertical-align:top;">:</td><td><div>set([&#x27;D:\\\\Workspaces\\\\Tweet-Streaming-Data-Analysis-Service\\\\web2py\\\\applications\\\\admin\\\\&#x27;, &#x27;D:\\\\Workspaces\\\\Tweet-Streaming-Data-Analysis-Service\\\\web2py\\\\applications\\\\welcome\\\\&#x27;, &#x27;D:\\\\Workspaces\\\\Tweet-Streaming-Data-Analysis-Service\\\\web2py\\\\applications\\\\twitter_analysis_app\\\\&#x27;])</div></td></tr><tr><td style="font-weight:bold;vertical-align:top;">applications_parent</td><td style="vertical-align:top;">:</td><td><div>D:\\Workspaces\\Tweet-Streaming-Data-Analysis-Service\\web2py</div></td></tr><tr><td style="font-weight:bold;vertical-align:top;">cmd_args</td><td style="vertical-align:top;">:</td><td><div><table></table></div></td></tr><tr><td style="font-weight:bold;vertical-align:top;">cmd_options</td><td style="vertical-align:top;">:</td><td><div>&lt;Values at 0x430d888: {&#x27;verbose&#x27;: False, &#x27;ip&#x27;: &#x27;127.0.0.1&#x27;, &#x27;debuglevel&#x27;: 30, &#x27;with_scheduler&#x27;: False, &#x27;shutdown_timeout&#x27;: 5, &#x27;taskbar&#x27;: False, &#x27;with_coverage&#x27;: False, &#x27;pid_filename&#x27;: &#x27;httpserver.pid&#x27;, &#x27;maxthreads&#x27;: None, &#x27;softcron&#x27;: False, &#x27;server_name&#x27;: &#x27;DESKTOP-6LEIA3N&#x27;, &#x27;bpython&#x27;: False, &#x27;nogui&#x27;: False, &#x27;port&#x27;: 8000, &#x27;print_errors&#x27;: False, &#x27;extcron&#x27;: False, &#x27;runcron&#x27;: False, &#x27;run_system_tests&#x27;: False, &#x27;test&#x27;: None, &#x27;folder&#x27;: &#x27;D:\\\\Workspaces\\\\Tweet-Streaming-Data-Analysis-Service\\\\web2py&#x27;, &#x27;config&#x27;: &#x27;&#x27;, &#x27;minthreads&#x27;: None, &#x27;shell&#x27;: None, &#x27;run&#x27;: &#x27;&#x27;, &#x27;log_filename&#x27;: &#x27;httpserver.log&#x27;, &#x27;profiler_dir&#x27;: None, &#x27;args&#x27;: [&#x27;&#x27;], &#x27;socket_timeout&#x27;: 5, &#x27;ssl_ca_certificate&#x27;: None, &#x27;scheduler&#x27;: None, &#x27;interfaces&#x27;: None, &#x27;ssl_private_key&#x27;: &#x27;&#x27;, &#x27;gae&#x27;: None, &#x27;password&#x27;: &#x27;******&#x27;, &#x27;request_queue_size&#x27;: 5, &#x27;ssl_certificate&#x27;: &#x27;&#x27;, &#x27;cronjob&#x27;: False, &#x27;numthreads&#x27;: None, &#x27;quiet&#x27;: False, &#x27;import_models&#x27;: False, &#x27;timeout&#x27;: 10, &#x27;plain&#x27;: False, &#x27;nobanner&#x27;: False}&gt;</div></td></tr><tr><td style="font-weight:bold;vertical-align:top;">content_length</td><td style="vertical-align:top;">:</td><td><div>42</div></td></tr><tr><td style="font-weight:bold;vertical-align:top;">content_type</td><td style="vertical-align:top;">:</td><td><div>application/x-www-form-urlencoded; charset=UTF-8</div></td></tr><tr><td style="font-weight:bold;vertical-align:top;">db_sessions</td><td style="vertical-align:top;">:</td><td><div>set([])</div></td></tr><tr><td style="font-weight:bold;vertical-align:top;">debugging</td><td style="vertical-align:top;">:</td><td><div>False</div></td></tr><tr><td style="font-weight:bold;vertical-align:top;">gluon_parent</td><td style="vertical-align:top;">:</td><td><div>D:\\Workspaces\\Tweet-Streaming-Data-Analysis-Service\\web2py</div></td></tr><tr><td style="font-weight:bold;vertical-align:top;">http_accept</td><td style="vertical-align:top;">:</td><td><div>application/json, text/javascript, */*; q=0.01</div></td></tr><tr><td style="font-weight:bold;vertical-align:top;">http_accept_encoding</td><td style="vertical-align:top;">:</td><td><div>gzip, deflate, br</div></td></tr><tr><td style="font-weight:bold;vertical-align:top;">http_accept_language</td><td style="vertical-align:top;">:</td><td><div>zh-CN,zh;q=0.8</div></td></tr><tr><td style="font-weight:bold;vertical-align:top;">http_connection</td><td style="vertical-align:top;">:</td><td><div>keep-alive</div></td></tr><tr><td style="font-weight:bold;vertical-align:top;">http_content_length</td><td style="vertical-align:top;">:</td><td><div>42</div></td></tr><tr><td style="font-weight:bold;vertical-align:top;">http_content_type</td><td style="vertical-align:top;">:</td><td><div>application/x-www-form-urlencoded; charset=UTF-8</div></td></tr><tr><td style="font-weight:bold;vertical-align:top;">http_cookie</td><td style="vertical-align:top;">:</td><td><div>session_id_hw=&quot;3:d3a355e3-98ba-415a-a3b6-82680b4bac31&quot;; session_id_welcome=127.0.0.1-b30d4fef-335f-413c-9eff-a845e3f487a3; session_id_admin=127.0.0.1-fec92e1c-d5eb-463c-91ba-5ec5bc12849b; session_id_twitter_analysis_app=127.0.0.1-0dbb0ff7-e5d1-4d3f-80a7-a6576173b6e7</div></td></tr><tr><td style="font-weight:bold;vertical-align:top;">http_host</td><td style="vertical-align:top;">:</td><td><div>127.0.0.1:8080</div></td></tr><tr><td style="font-weight:bold;vertical-align:top;">http_origin</td><td style="vertical-align:top;">:</td><td><div>http://127.0.0.1:8080</div></td></tr><tr><td style="font-weight:bold;vertical-align:top;">http_referer</td><td style="vertical-align:top;">:</td><td><div>http://127.0.0.1:8080/twitter_analysis_app/default/index</div></td></tr><tr><td style="font-weight:bold;vertical-align:top;">http_user_agent</td><td style="vertical-align:top;">:</td><td><div>Mozilla/5.0 (Windows NT 10.0; Win64; x64) AppleWebKit/537.36 (KHTML, like Gecko) Chrome/54.0.2840.71 Safari/537.36</div></td></tr><tr><td style="font-weight:bold;vertical-align:top;">http_x_requested_with</td><td style="vertical-align:top;">:</td><td><div>XMLHttpRequest</div></td></tr><tr><td style="font-weight:bold;vertical-align:top;">is_jython</td><td style="vertical-align:top;">:</td><td><div>False</div></td></tr><tr><td style="font-weight:bold;vertical-align:top;">is_pypy</td><td style="vertical-align:top;">:</td><td><div>False</div></td></tr><tr><td style="font-weight:bold;vertical-align:top;">is_source</td><td style="vertical-align:top;">:</td><td><div>True</div></td></tr><tr><td style="font-weight:bold;vertical-align:top;">local_hosts</td><td style="vertical-align:top;">:</td><td><div><table><tr><td><div>2001:0:9d38:90d7:400:16d1:b621:ac9c</div></td></tr><tr><td><div>10.0.0.66</div></td></tr><tr><td><div>fe80::7438:9965:c7b4:3e28%20</div></td></tr><tr><td><div>::ffff:127.0.0.1</div></td></tr><tr><td><div>::1</div></td></tr><tr><td><div>DESKTOP-6LEIA3N.hsd1.ca.comcast.net</div></td></tr><tr><td><div>2601:647:c801:b923:e4a9:f880:aca7:a729</div></td></tr><tr><td><div>DESKTOP-6LEIA3N</div></td></tr><tr><td><div>2601:647:c801:b923:7438:9965:c7b4:3e28</div></td></tr><tr><td><div>127.0.0.1</div></td></tr><tr><td><div>fe80::400:16d1:b621:ac9c%6</div></td></tr></table></div></td></tr><tr><td style="font-weight:bold;vertical-align:top;">path_info</td><td style="vertical-align:top;">:</td><td><div>/twitter_analysis_app/default/get_chart_data</div></td></tr><tr><td style="font-weight:bold;vertical-align:top;">query_string</td><td style="vertical-align:top;">:</td><td><div></div></td></tr><tr><td style="font-weight:bold;vertical-align:top;">remote_addr</td><td style="vertical-align:top;">:</td><td><div>127.0.0.1</div></td></tr><tr><td style="font-weight:bold;vertical-align:top;">remote_port</td><td style="vertical-align:top;">:</td><td><div>55791</div></td></tr><tr><td style="font-weight:bold;vertical-align:top;">request_method</td><td style="vertical-align:top;">:</td><td><div>POST</div></td></tr><tr><td style="font-weight:bold;vertical-align:top;">request_uri</td><td style="vertical-align:top;">:</td><td><div>/twitter_analysis_app/default/get_chart_data</div></td></tr><tr><td style="font-weight:bold;vertical-align:top;">script_name</td><td style="vertical-align:top;">:</td><td><div></div></td></tr><tr><td style="font-weight:bold;vertical-align:top;">server_name</td><td style="vertical-align:top;">:</td><td><div>DESKTOP-6LEIA3N</div></td></tr><tr><td style="font-weight:bold;vertical-align:top;">server_port</td><td style="vertical-align:top;">:</td><td><div>8080</div></td></tr><tr><td style="font-weight:bold;vertical-align:top;">server_protocol</td><td style="vertical-align:top;">:</td><td><div>HTTP/1.1</div></td></tr><tr><td style="font-weight:bold;vertical-align:top;">server_software</td><td style="vertical-align:top;">:</td><td><div>Rocket 1.2.6</div></td></tr><tr><td style="font-weight:bold;vertical-align:top;">web2py_path</td><td style="vertical-align:top;">:</td><td><div>D:\\Workspaces\\Tweet-Streaming-Data-Analysis-Service\\web2py</div></td></tr><tr><td style="font-weight:bold;vertical-align:top;">web2py_version</td><td style="vertical-align:top;">:</td><td><div>2.14.6-stable+timestamp.2016.05.10.00.21.47</div></td></tr><tr><td style="font-weight:bold;vertical-align:top;">wsgi.errors</td><td style="vertical-align:top;">:</td><td><div>&lt;open file &#x27;&lt;stderr&gt;&#x27;, mode &#x27;w&#x27; at 0x000000000250B150&gt;</div></td></tr><tr><td style="font-weight:bold;vertical-align:top;">wsgi.file_wrapper</td><td style="vertical-align:top;">:</td><td><div>&lt;class wsgiref.util.FileWrapper at 0x000000000429E948&gt;</div></td></tr><tr><td style="font-weight:bold;vertical-align:top;">wsgi.input</td><td style="vertical-align:top;">:</td><td><div>&lt;socket._fileobject object at 0x0000000010CCEF48&gt;</div></td></tr><tr><td style="font-weight:bold;vertical-align:top;">wsgi.multiprocess</td><td style="vertical-align:top;">:</td><td><div>False</div></td></tr><tr><td style="font-weight:bold;vertical-align:top;">wsgi.multithread</td><td style="vertical-align:top;">:</td><td><div>True</div></td></tr><tr><td style="font-weight:bold;vertical-align:top;">wsgi.run_once</td><td style="vertical-align:top;">:</td><td><div>False</div></td></tr><tr><td style="font-weight:bold;vertical-align:top;">wsgi.url_scheme</td><td style="vertical-align:top;">:</td><td><div>http</div></td></tr><tr><td style="font-weight:bold;vertical-align:top;">wsgi.version</td><td style="vertical-align:top;">:</td><td><div><table><tr><td><div>1</div></td></tr><tr><td><div>0</div></td></tr></table></div></td></tr><tr><td style="font-weight:bold;vertical-align:top;">wsgi_errors</td><td style="vertical-align:top;">:</td><td><div>&lt;open file &#x27;&lt;stderr&gt;&#x27;, mode &#x27;w&#x27; at 0x000000000250B150&gt;</div></td></tr><tr><td style="font-weight:bold;vertical-align:top;">wsgi_file_wrapper</td><td style="vertical-align:top;">:</td><td><div>&lt;class wsgiref.util.FileWrapper at 0x000000000429E948&gt;</div></td></tr><tr><td style="font-weight:bold;vertical-align:top;">wsgi_input</td><td style="vertical-align:top;">:</td><td><div>&lt;socket._fileobject object at 0x0000000010CCEF48&gt;</div></td></tr><tr><td style="font-weight:bold;vertical-align:top;">wsgi_multiprocess</td><td style="vertical-align:top;">:</td><td><div>False</div></td></tr><tr><td style="font-weight:bold;vertical-align:top;">wsgi_multithread</td><td style="vertical-align:top;">:</td><td><div>True</div></td></tr><tr><td style="font-weight:bold;vertical-align:top;">wsgi_run_once</td><td style="vertical-align:top;">:</td><td><div>False</div></td></tr><tr><td style="font-weight:bold;vertical-align:top;">wsgi_url_scheme</td><td style="vertical-align:top;">:</td><td><div>http</div></td></tr><tr><td style="font-weight:bold;vertical-align:top;">wsgi_version</td><td style="vertical-align:top;">:</td><td><div><table><tr><td><div>1</div></td></tr><tr><td><div>0</div></td></tr></table></div></td></tr></table></div></td></tr><tr><td style="font-weight:bold;vertical-align:top;">extension</td><td style="vertical-align:top;">:</td><td><div>html</div></td></tr><tr><td style="font-weight:bold;vertical-align:top;">folder</td><td style="vertical-align:top;">:</td><td><div>D:\\Workspaces\\Tweet-Streaming-Data-Analysis-Service\\web2py\\applications\\twitter_analysis_app\\</div></td></tr><tr><td style="font-weight:bold;vertical-align:top;">function</td><td style="vertical-align:top;">:</td><td><div>get_chart_data</div></td></tr><tr><td style="font-weight:bold;vertical-align:top;">global_settings</td><td style="vertical-align:top;">:</td><td><div><table><tr><td style="font-weight:bold;vertical-align:top;">app_folders</td><td style="vertical-align:top;">:</td><td><div>set([&#x27;D:\\\\Workspaces\\\\Tweet-Streaming-Data-Analysis-Service\\\\web2py\\\\applications\\\\admin\\\\&#x27;, &#x27;D:\\\\Workspaces\\\\Tweet-Streaming-Data-Analysis-Service\\\\web2py\\\\applications\\\\welcome\\\\&#x27;, &#x27;D:\\\\Workspaces\\\\Tweet-Streaming-Data-Analysis-Service\\\\web2py\\\\applications\\\\twitter_analysis_app\\\\&#x27;])</div></td></tr><tr><td style="font-weight:bold;vertical-align:top;">applications_parent</td><td style="vertical-align:top;">:</td><td><div>D:\\Workspaces\\Tweet-Streaming-Data-Analysis-Service\\web2py</div></td></tr><tr><td style="font-weight:bold;vertical-align:top;">cmd_args</td><td style="vertical-align:top;">:</td><td><div><table></table></div></td></tr><tr><td style="font-weight:bold;vertical-align:top;">cmd_options</td><td style="vertical-align:top;">:</td><td><div>&lt;Values at 0x430d888: {&#x27;verbose&#x27;: False, &#x27;ip&#x27;: &#x27;127.0.0.1&#x27;, &#x27;debuglevel&#x27;: 30, &#x27;with_scheduler&#x27;: False, &#x27;shutdown_timeout&#x27;: 5, &#x27;taskbar&#x27;: False, &#x27;with_coverage&#x27;: False, &#x27;pid_filename&#x27;: &#x27;httpserver.pid&#x27;, &#x27;maxthreads&#x27;: None, &#x27;softcron&#x27;: False, &#x27;server_name&#x27;: &#x27;DESKTOP-6LEIA3N&#x27;, &#x27;bpython&#x27;: False, &#x27;nogui&#x27;: False, &#x27;port&#x27;: 8000, &#x27;print_errors&#x27;: False, &#x27;extcron&#x27;: False, &#x27;runcron&#x27;: False, &#x27;run_system_tests&#x27;: False, &#x27;test&#x27;: None, &#x27;folder&#x27;: &#x27;D:\\\\Workspaces\\\\Tweet-Streaming-Data-Analysis-Service\\\\web2py&#x27;, &#x27;config&#x27;: &#x27;&#x27;, &#x27;minthreads&#x27;: None, &#x27;shell&#x27;: None, &#x27;run&#x27;: &#x27;&#x27;, &#x27;log_filename&#x27;: &#x27;httpserver.log&#x27;, &#x27;profiler_dir&#x27;: None, &#x27;args&#x27;: [&#x27;&#x27;], &#x27;socket_timeout&#x27;: 5, &#x27;ssl_ca_certificate&#x27;: None, &#x27;scheduler&#x27;: None, &#x27;interfaces&#x27;: None, &#x27;ssl_private_key&#x27;: &#x27;&#x27;, &#x27;gae&#x27;: None, &#x27;password&#x27;: &#x27;******&#x27;, &#x27;request_queue_size&#x27;: 5, &#x27;ssl_certificate&#x27;: &#x27;&#x27;, &#x27;cronjob&#x27;: False, &#x27;numthreads&#x27;: None, &#x27;quiet&#x27;: False, &#x27;import_models&#x27;: False, &#x27;timeout&#x27;: 10, &#x27;plain&#x27;: False, &#x27;nobanner&#x27;: False}&gt;</div></td></tr><tr><td style="font-weight:bold;vertical-align:top;">db_sessions</td><td style="vertical-align:top;">:</td><td><div>set([])</div></td></tr><tr><td style="font-weight:bold;vertical-align:top;">debugging</td><td style="vertical-align:top;">:</td><td><div>False</div></td></tr><tr><td style="font-weight:bold;vertical-align:top;">gluon_parent</td><td style="vertical-align:top;">:</td><td><div>D:\\Workspaces\\Tweet-Streaming-Data-Analysis-Service\\web2py</div></td></tr><tr><td style="font-weight:bold;vertical-align:top;">is_jython</td><td style="vertical-align:top;">:</td><td><div>False</div></td></tr><tr><td style="font-weight:bold;vertical-align:top;">is_pypy</td><td style="vertical-align:top;">:</td><td><div>False</div></td></tr><tr><td style="font-weight:bold;vertical-align:top;">is_source</td><td style="vertical-align:top;">:</td><td><div>True</div></td></tr><tr><td style="font-weight:bold;vertical-align:top;">local_hosts</td><td style="vertical-align:top;">:</td><td><div><table><tr><td><div>2001:0:9d38:90d7:400:16d1:b621:ac9c</div></td></tr><tr><td><div>10.0.0.66</div></td></tr><tr><td><div>fe80::7438:9965:c7b4:3e28%20</div></td></tr><tr><td><div>::ffff:127.0.0.1</div></td></tr><tr><td><div>::1</div></td></tr><tr><td><div>DESKTOP-6LEIA3N.hsd1.ca.comcast.net</div></td></tr><tr><td><div>2601:647:c801:b923:e4a9:f880:aca7:a729</div></td></tr><tr><td><div>DESKTOP-6LEIA3N</div></td></tr><tr><td><div>2601:647:c801:b923:7438:9965:c7b4:3e28</div></td></tr><tr><td><div>127.0.0.1</div></td></tr><tr><td><div>fe80::400:16d1:b621:ac9c%6</div></td></tr></table></div></td></tr><tr><td style="font-weight:bold;vertical-align:top;">web2py_version</td><td style="vertical-align:top;">:</td><td><div>2.14.6-stable+timestamp.2016.05.10.00.21.47</div></td></tr></table></div></td></tr><tr><td style="font-weight:bold;vertical-align:top;">is_https</td><td style="vertical-align:top;">:</td><td><div>False</div></td></tr><tr><td style="font-weight:bold;vertical-align:top;">is_local</td><td style="vertical-align:top;">:</td><td><div>True</div></td></tr><tr><td style="font-weight:bold;vertical-align:top;">is_restful</td><td style="vertical-align:top;">:</td><td><div>False</div></td></tr><tr><td style="font-weight:bold;vertical-align:top;">is_scheduler</td><td style="vertical-align:top;">:</td><td><div>False</div></td></tr><tr><td style="font-weight:bold;vertical-align:top;">is_shell</td><td style="vertical-align:top;">:</td><td><div>False</div></td></tr><tr><td style="font-weight:bold;vertical-align:top;">now</td><td style="vertical-align:top;">:</td><td><div>datetime.datetime(2016, 11, 7, 12, 0, 50, 429000)</div></td></tr><tr><td style="font-weight:bold;vertical-align:top;">raw_args</td><td style="vertical-align:top;">:</td><td><div></div></td></tr><tr><td style="font-weight:bold;vertical-align:top;">raw_extension</td><td style="vertical-align:top;">:</td><td><div>None</div></td></tr><tr><td style="font-weight:bold;vertical-align:top;">url</td><td style="vertical-align:top;">:</td><td><div>/twitter_analysis_app/default/get_chart_data</div></td></tr><tr><td style="font-weight:bold;vertical-align:top;">utcnow</td><td style="vertical-align:top;">:</td><td><div>datetime.datetime(2016, 11, 7, 20, 0, 50, 429000)</div></td></tr><tr><td style="font-weight:bold;vertical-align:top;">wsgi</td><td style="vertical-align:top;">:</td><td><div>&lt;gluon.main.LazyWSGI object at 0x0000000010D30B00&gt;</div></td></tr></table></div>'
tRp63
sS'frames'
p64
(lp65
(dp66
S'file'
p67
S'D:\\Workspaces\\Tweet-Streaming-Data-Analysis-Service\\web2py\\gluon\\restricted.py'
p68
sS'dump'
p69
(dp70
S'environment'
p71
S"{'A': <class 'gluon.html.A'>, 'ANY_OF': <class 'gluon.validators.ANY_OF'>, 'ASSIGNJS': <function ASSIGNJS>, 'AppConfig': <function AppConfig>, 'Auth': <class 'gluon.tools.Auth'>, 'B': <class 'gluon.html.B'>, 'BEAUTIFY': <class 'gluon.html.BEAUTIFY'>, 'BODY': <class 'gluon.html.BODY'>, 'BR': <class 'gluon.html.BR'>, 'BUTTON': <class 'gluon.html.BUTTON'>, ...}"
p72
sS'ccode'
p73
S'<code object <module> at 000000001115E130, file ...er_analysis_app\\controllers/default.py", line 10>'
p74
ssS'lnum'
p75
I227
sS'lines'
p76
(dp77
I224
S'            ccode = code'
p78
sI225
S'        else:'
p79
sI226
S'            ccode = compile2(code, layer)'
p80
sI227
S'        exec ccode in environment'
p81
sI228
S'    except HTTP:'
p82
sI229
S'        raise'
p83
sI230
S'    except RestrictedError:'
p84
sI231
S'        # do not encapsulate (obfuscate) the original RestrictedError'
p85
sI222
S'    try:'
p86
sI223
S'        if isinstance(code, types.CodeType):'
p87
ssS'call'
p88
S"(code='# -*- coding: utf-8 -*-\\n# this file is released ...\\nresponse._vars=response._caller(get_chart_data)\\n', environment={'A': <class 'gluon.html.A'>, 'ANY_OF': <class 'gluon.validators.ANY_OF'>, 'ASSIGNJS': <function ASSIGNJS>, 'AppConfig': <function AppConfig>, 'Auth': <class 'gluon.tools.Auth'>, 'B': <class 'gluon.html.B'>, 'BEAUTIFY': <class 'gluon.html.BEAUTIFY'>, 'BODY': <class 'gluon.html.BODY'>, 'BR': <class 'gluon.html.BR'>, 'BUTTON': <class 'gluon.html.BUTTON'>, ...}, layer=r'D:\\Workspaces\\Tweet-Streaming-Data-Analysis-Serv...tions\\twitter_analysis_app\\controllers/default.py')"
p89
sS'func'
p90
S'restricted'
p91
sa(dp92
g67
S'D:\\Workspaces\\Tweet-Streaming-Data-Analysis-Service\\web2py\\applications\\twitter_analysis_app\\controllers\\default.py'
p93
sg69
(dp94
sg75
I501
sg76
(dp95
I490
S'def call():'
p96
sI491
S'    """'
p97
sI492
S'    exposes services. for example:'
p98
sI493
S'    http://..../[app]/default/call/jsonrpc'
p99
sI494
S'    decorate with @services.jsonrpc the functions to expose'
p100
sI495
S'    supports xml, json, xmlrpc, jsonrpc, amfrpc, rss, csv'
p101
sI496
S'    """'
p102
sI497
S'    return service()'
p103
sI498
S''
sI499
S''
ssg88
S'()'
p104
sg90
S'<module>'
p105
sa(dp106
g67
S'D:\\Workspaces\\Tweet-Streaming-Data-Analysis-Service\\web2py\\gluon\\globals.py'
p107
sg69
(dp108
S'self'
p109
S'undefined'
p110
sS'f'
S'<function get_chart_data>'
p111
ssg75
I417
sg76
(dp112
I416
S'        self._vars = None'
p113
sI417
S'        self._caller = lambda f: f()'
p114
sI418
S'        self._view_environment = None'
p115
sI419
S'        self._custom_commit = None'
p116
sI420
S'        self._custom_rollback = None'
p117
sI421
S"        self.generic_patterns = ['*']"
p118
sI412
S"        self.flash = ''            # used by the default view layout"
p119
sI413
S'        self.meta = Storage()      # used by web2py_ajax.html'
p120
sI414
S'        self.menu = []             # used by the default view layout'
p121
sI415
S'        self.files = []            # used by web2py_ajax.html'
p122
ssg88
S'(f=<function get_chart_data>)'
p123
sg90
S'<lambda>'
p124
sa(dp125
g67
S'D:\\Workspaces\\Tweet-Streaming-Data-Analysis-Service\\web2py\\applications\\twitter_analysis_app\\controllers\\default.py'
p126
sg69
(dp127
S'default'
p128
g110
sS'global download'
p129
S'<function download>'
p130
sS'app'
p131
g110
sS'http'
p132
g110
sS'filename'
p133
g110
ssg75
I452
sg76
(dp134
I448
S"    elif analysis_type == 'Hashtag':"
p135
sI449
S'        data = process_hashtag_analysis()'
p136
sI450
S"    elif analysis_type == 'Keyword':"
p137
sI451
S"        print 'start to analysis keyword.'"
p138
sI452
S'        data = process_keyword_analysis()'
p139
sI453
S''
sI454
S'    json_data = response.json(data)'
p140
sI455
S''
sI456
S'    print json_data'
p141
sI447
S'        data = process_language_analysis()'
p142
ssg88
S'()'
p143
sg90
S'get_chart_data'
p144
sa(dp145
g67
S'D:\\Workspaces\\Tweet-Streaming-Data-Analysis-Service\\web2py\\applications\\twitter_analysis_app\\controllers\\default.py'
p146
sg69
(dp147
S'item'
p148
g110
ssg75
I389
sg76
(dp149
I384
S''
sI385
S'def process_keyword_analysis():'
p150
sI386
S'    global collection'
p151
sI387
S'    print collection.count()'
p152
sI388
S'    print collection'
p153
sI389
S'    keyword = Keyword()'
p154
sI390
S'    data = []'
p155
sI391
S''
sI392
S'    return data'
p156
sI393
S''
ssg88
S'()'
p157
sg90
S'process_keyword_analysis'
p158
sa(dp159
g67
S'D:\\Workspaces\\Tweet-Streaming-Data-Analysis-Service\\web2py\\applications\\twitter_analysis_app\\controllers\\default.py'
p160
sg69
(dp161
S'search_word'
p162
g110
sS'global update_collection'
p163
S'<function update_collection>'
p164
ssg75
I74
sg76
(dp165
I69
S'            print "Twitter stream has been disconnected successfully."'
p166
sI70
S''
sI71
S'class Keyword:'
p167
sI72
S'    def __init__(self):'
p168
sI73
S'        self.stopWordList = set()          # stop word list'
p169
sI74
S"        f = open('twitter_analysis_app\\StopWsord.txt', 'r')"
p170
sI75
S'        for line in f:'
p171
sI76
S"            line = line[:-1]            # remove '\\n'"
p172
sI77
S'            self.stopWordList.add(line)'
p173
sI78
S''
ssg88
S'(self=<__restricted__.Keyword instance>)'
p174
sg90
g22
sasS'pyver'
p175
S'Python 2.7.12: D:\\DevTools\\Anaconda2\\python.exe (prefix: D:\\DevTools\\Anaconda2)'
p176
sS'session'
p177
g62
(S's\x1a\x00\x00\x00<div><table></table></div>'
tRp178
sS'etype'
p179
S"<type 'exceptions.IOError'>"
p180
sS'date'
p181
S'Mon Nov 07 12:00:50 2016'
p182
sS'response'
p183
g62
(S'sc?\x00\x00<div><table><tr><td style="font-weight:bold;vertical-align:top;">body</td><td style="vertical-align:top;">:</td><td><div>&lt;cStringIO.StringO object at 0x000000000D8AB228&gt;</div></td></tr><tr><td style="font-weight:bold;vertical-align:top;">cookies</td><td style="vertical-align:top;">:</td><td><div><table><tr><td style="font-weight:bold;vertical-align:top;">session_id_twitter_analysis_app</td><td style="vertical-align:top;">:</td><td><div>127.0.0.1-437fd25d-abc2-417c-8e9c-c5fcc0ff115a<table><tr><td style="font-weight:bold;vertical-align:top;">comment</td><td style="vertical-align:top;">:</td><td><div></div></td></tr><tr><td style="font-weight:bold;vertical-align:top;">domain</td><td style="vertical-align:top;">:</td><td><div></div></td></tr><tr><td style="font-weight:bold;vertical-align:top;">expires</td><td style="vertical-align:top;">:</td><td><div></div></td></tr><tr><td style="font-weight:bold;vertical-align:top;">httponly</td><td style="vertical-align:top;">:</td><td><div></div></td></tr><tr><td style="font-weight:bold;vertical-align:top;">max-age</td><td style="vertical-align:top;">:</td><td><div></div></td></tr><tr><td style="font-weight:bold;vertical-align:top;">path</td><td style="vertical-align:top;">:</td><td><div>/</div></td></tr><tr><td style="font-weight:bold;vertical-align:top;">secure</td><td style="vertical-align:top;">:</td><td><div></div></td></tr><tr><td style="font-weight:bold;vertical-align:top;">version</td><td style="vertical-align:top;">:</td><td><div></div></td></tr></table></div></td></tr></table></div></td></tr><tr><td style="font-weight:bold;vertical-align:top;">delimiters</td><td style="vertical-align:top;">:</td><td><div><table><tr><td><div>{{</div></td></tr><tr><td><div>}}</div></td></tr></table></div></td></tr><tr><td style="font-weight:bold;vertical-align:top;">files</td><td style="vertical-align:top;">:</td><td><div><table></table></div></td></tr><tr><td style="font-weight:bold;vertical-align:top;">flash</td><td style="vertical-align:top;">:</td><td><div></div></td></tr><tr><td style="font-weight:bold;vertical-align:top;">form_label_separator</td><td style="vertical-align:top;">:</td><td><div></div></td></tr><tr><td style="font-weight:bold;vertical-align:top;">formstyle</td><td style="vertical-align:top;">:</td><td><div>bootstrap3_inline</div></td></tr><tr><td style="font-weight:bold;vertical-align:top;">generic_patterns</td><td style="vertical-align:top;">:</td><td><div><table><tr><td><div>*</div></td></tr></table></div></td></tr><tr><td style="font-weight:bold;vertical-align:top;">google_analytics_id</td><td style="vertical-align:top;">:</td><td><div>None</div></td></tr><tr><td style="font-weight:bold;vertical-align:top;">headers</td><td style="vertical-align:top;">:</td><td><div><table><tr><td style="font-weight:bold;vertical-align:top;">X-Powered-By</td><td style="vertical-align:top;">:</td><td><div>web2py</div></td></tr></table></div></td></tr><tr><td style="font-weight:bold;vertical-align:top;">logo</td><td style="vertical-align:top;">:</td><td><div><a class="navbar-brand" href="http://www.web2py.com/" id="web2py-logo"><b>web<span>2</span>py</b>&trade;&nbsp;</a></div></td></tr><tr><td style="font-weight:bold;vertical-align:top;">menu</td><td style="vertical-align:top;">:</td><td><div><table><tr><td><div><table><tr><td><div>Home</div></td></tr><tr><td><div>False</div></td></tr><tr><td><div>/twitter_analysis_app/default/index</div></td></tr><tr><td><div><table></table></div></td></tr></table></div></td></tr><tr><td><div><table><tr><td><div>My Sites</div></td></tr><tr><td><div>False</div></td></tr><tr><td><div>/admin/default/site</div></td></tr></table></div></td></tr><tr><td><div><table><tr><td><div>\xe8\xaf\xa5\xe5\xba\x94\xe7\x94\xa8</div></td></tr><tr><td><div>False</div></td></tr><tr><td><div>#</div></td></tr><tr><td><div><table><tr><td><div><table><tr><td><div>Design</div></td></tr><tr><td><div>False</div></td></tr><tr><td><div>/admin/default/design/twitter_analysis_app</div></td></tr></table></div></td></tr><tr><td><div><li class="divider"></li></div></td></tr><tr><td><div><table><tr><td><div>\xe6\x8e\xa7\xe4\xbb\xb6</div></td></tr><tr><td><div>False</div></td></tr><tr><td><div>/admin/default/edit/twitter_analysis_app/controllers/default.py</div></td></tr></table></div></td></tr><tr><td><div><table><tr><td><div>\xe6\x9f\xa5\xe7\x9c\x8b</div></td></tr><tr><td><div>False</div></td></tr><tr><td><div>/admin/default/edit/twitter_analysis_app/views/default/get_chart_data.html</div></td></tr></table></div></td></tr><tr><td><div><table><tr><td><div>\xe6\x95\xb0\xe6\x8d\xae\xe5\xba\x93\xe6\xa8\xa1\xe5\x9e\x8b</div></td></tr><tr><td><div>False</div></td></tr><tr><td><div>/admin/default/edit/twitter_analysis_app/models/db.py</div></td></tr></table></div></td></tr><tr><td><div><table><tr><td><div>\xe8\x8f\x9c\xe5\x8d\x95\xe6\xa8\xa1\xe5\x9e\x8b(menu)</div></td></tr><tr><td><div>False</div></td></tr><tr><td><div>/admin/default/edit/twitter_analysis_app/models/menu.py</div></td></tr></table></div></td></tr><tr><td><div><table><tr><td><div>Config.ini</div></td></tr><tr><td><div>False</div></td></tr><tr><td><div>/admin/default/edit/twitter_analysis_app/private/appconfig.ini</div></td></tr></table></div></td></tr><tr><td><div><table><tr><td><div>\xe7\xbd\x91\xe9\xa1\xb5\xe5\xb8\x83\xe5\xb1\x80</div></td></tr><tr><td><div>False</div></td></tr><tr><td><div>/admin/default/edit/twitter_analysis_app/views/layout.html</div></td></tr></table></div></td></tr><tr><td><div><table><tr><td><div>\xe7\xbd\x91\xe9\xa1\xb5\xe6\xa0\xb7\xe5\xbc\x8f\xe8\xa1\xa8</div></td></tr><tr><td><div>False</div></td></tr><tr><td><div>/admin/default/edit/twitter_analysis_app/static/css/web2py-bootstrap3.css</div></td></tr></table></div></td></tr><tr><td><div><table><tr><td><div>\xe6\x95\xb0\xe6\x8d\xae\xe5\xba\x93</div></td></tr><tr><td><div>False</div></td></tr><tr><td><div>/twitter_analysis_app/appadmin/index</div></td></tr></table></div></td></tr><tr><td><div><table><tr><td><div>Errors</div></td></tr><tr><td><div>False</div></td></tr><tr><td><div>/admin/default/errors/twitter_analysis_app</div></td></tr></table></div></td></tr><tr><td><div><table><tr><td><div>\xe5\x85\xb3\xe4\xba\x8e</div></td></tr><tr><td><div>False</div></td></tr><tr><td><div>/admin/default/about/twitter_analysis_app</div></td></tr></table></div></td></tr></table></div></td></tr></table></div></td></tr><tr><td><div><table><tr><td><div>web2py.com</div></td></tr><tr><td><div>False</div></td></tr><tr><td><div>#</div></td></tr><tr><td><div><table><tr><td><div><table><tr><td><div>\xe4\xb8\x8b\xe8\xbd\xbd</div></td></tr><tr><td><div>False</div></td></tr><tr><td><div>http://www.web2py.com/examples/default/download</div></td></tr></table></div></td></tr><tr><td><div><table><tr><td><div>Support</div></td></tr><tr><td><div>False</div></td></tr><tr><td><div>http://www.web2py.com/examples/default/support</div></td></tr></table></div></td></tr><tr><td><div><table><tr><td><div>Demo</div></td></tr><tr><td><div>False</div></td></tr><tr><td><div>http://web2py.com/demo_admin</div></td></tr></table></div></td></tr><tr><td><div><table><tr><td><div>Quick Examples</div></td></tr><tr><td><div>False</div></td></tr><tr><td><div>http://web2py.com/examples/default/examples</div></td></tr></table></div></td></tr><tr><td><div><table><tr><td><div>FAQ</div></td></tr><tr><td><div>False</div></td></tr><tr><td><div>http://web2py.com/AlterEgo</div></td></tr></table></div></td></tr><tr><td><div><table><tr><td><div>\xe8\xa7\x86\xe9\xa2\x91</div></td></tr><tr><td><div>False</div></td></tr><tr><td><div>http://www.web2py.com/examples/default/videos/</div></td></tr></table></div></td></tr><tr><td><div><table><tr><td><div>Free Applications</div></td></tr><tr><td><div>False</div></td></tr><tr><td><div>http://web2py.com/appliances</div></td></tr></table></div></td></tr><tr><td><div><table><tr><td><div>Plugins</div></td></tr><tr><td><div>False</div></td></tr><tr><td><div>http://web2py.com/plugins</div></td></tr></table></div></td></tr><tr><td><div><table><tr><td><div>Recipes</div></td></tr><tr><td><div>False</div></td></tr><tr><td><div>http://web2pyslices.com/</div></td></tr></table></div></td></tr></table></div></td></tr></table></div></td></tr><tr><td><div><table><tr><td><div>Documentation</div></td></tr><tr><td><div>False</div></td></tr><tr><td><div>#</div></td></tr><tr><td><div><table><tr><td><div><table><tr><td><div>Online book</div></td></tr><tr><td><div>False</div></td></tr><tr><td><div>http://www.web2py.com/book</div></td></tr></table></div></td></tr><tr><td><div><li class="divider"></li></div></td></tr><tr><td><div><table><tr><td><div>Preface</div></td></tr><tr><td><div>False</div></td></tr><tr><td><div>http://www.web2py.com/book/default/chapter/00</div></td></tr></table></div></td></tr><tr><td><div><table><tr><td><div>Introduction</div></td></tr><tr><td><div>False</div></td></tr><tr><td><div>http://www.web2py.com/book/default/chapter/01</div></td></tr></table></div></td></tr><tr><td><div><table><tr><td><div>Python</div></td></tr><tr><td><div>False</div></td></tr><tr><td><div>http://www.web2py.com/book/default/chapter/02</div></td></tr></table></div></td></tr><tr><td><div><table><tr><td><div>\xe6\xa6\x82\xe8\xa7\x88</div></td></tr><tr><td><div>False</div></td></tr><tr><td><div>http://www.web2py.com/book/default/chapter/03</div></td></tr></table></div></td></tr><tr><td><div><table><tr><td><div>The Core</div></td></tr><tr><td><div>False</div></td></tr><tr><td><div>http://www.web2py.com/book/default/chapter/04</div></td></tr></table></div></td></tr><tr><td><div><table><tr><td><div>\xe8\xa7\x86\xe5\x9b\xbe</div></td></tr><tr><td><div>False</div></td></tr><tr><td><div>http://www.web2py.com/book/default/chapter/05</div></td></tr></table></div></td></tr><tr><td><div><table><tr><td><div>\xe6\x95\xb0\xe6\x8d\xae\xe5\xba\x93</div></td></tr><tr><td><div>False</div></td></tr><tr><td><div>http://www.web2py.com/book/default/chapter/06</div></td></tr></table></div></td></tr><tr><td><div><table><tr><td><div>Forms and Validators</div></td></tr><tr><td><div>False</div></td></tr><tr><td><div>http://www.web2py.com/book/default/chapter/07</div></td></tr></table></div></td></tr><tr><td><div><table><tr><td><div>Email and SMS</div></td></tr><tr><td><div>False</div></td></tr><tr><td><div>http://www.web2py.com/book/default/chapter/08</div></td></tr></table></div></td></tr><tr><td><div><table><tr><td><div>Access Control</div></td></tr><tr><td><div>False</div></td></tr><tr><td><div>http://www.web2py.com/book/default/chapter/09</div></td></tr></table></div></td></tr><tr><td><div><table><tr><td><div>Services</div></td></tr><tr><td><div>False</div></td></tr><tr><td><div>http://www.web2py.com/book/default/chapter/10</div></td></tr></table></div></td></tr><tr><td><div><table><tr><td><div>Ajax Recipes</div></td></tr><tr><td><div>False</div></td></tr><tr><td><div>http://www.web2py.com/book/default/chapter/11</div></td></tr></table></div></td></tr><tr><td><div><table><tr><td><div>Components and Plugins</div></td></tr><tr><td><div>False</div></td></tr><tr><td><div>http://www.web2py.com/book/default/chapter/12</div></td></tr></table></div></td></tr><tr><td><div><table><tr><td><div>Deployment Recipes</div></td></tr><tr><td><div>False</div></td></tr><tr><td><div>http://www.web2py.com/book/default/chapter/13</div></td></tr></table></div></td></tr><tr><td><div><table><tr><td><div>Other Recipes</div></td></tr><tr><td><div>False</div></td></tr><tr><td><div>http://www.web2py.com/book/default/chapter/14</div></td></tr></table></div></td></tr><tr><td><div><table><tr><td><div>Helping web2py</div></td></tr><tr><td><div>False</div></td></tr><tr><td><div>http://www.web2py.com/book/default/chapter/15</div></td></tr></table></div></td></tr><tr><td><div><table><tr><td><div>Buy web2py\'s book</div></td></tr><tr><td><div>False</div></td></tr><tr><td><div>http://stores.lulu.com/web2py</div></td></tr></table></div></td></tr></table></div></td></tr></table></div></td></tr><tr><td><div><table><tr><td><div>Community</div></td></tr><tr><td><div>False</div></td></tr><tr><td><div>None</div></td></tr><tr><td><div><table><tr><td><div><table><tr><td><div>Groups</div></td></tr><tr><td><div>False</div></td></tr><tr><td><div>http://www.web2py.com/examples/default/usergroups</div></td></tr></table></div></td></tr><tr><td><div><table><tr><td><div>Twitter</div></td></tr><tr><td><div>False</div></td></tr><tr><td><div>http://twitter.com/web2py</div></td></tr></table></div></td></tr><tr><td><div><table><tr><td><div>Live Chat</div></td></tr><tr><td><div>False</div></td></tr><tr><td><div>http://webchat.freenode.net/?channels=web2py</div></td></tr></table></div></td></tr></table></div></td></tr></table></div></td></tr></table></div></td></tr><tr><td style="font-weight:bold;vertical-align:top;">meta</td><td style="vertical-align:top;">:</td><td><div><table><tr><td style="font-weight:bold;vertical-align:top;">author</td><td style="vertical-align:top;">:</td><td><div>Your Name &lt;you@example.com&gt;</div></td></tr><tr><td style="font-weight:bold;vertical-align:top;">description</td><td style="vertical-align:top;">:</td><td><div>a cool new app</div></td></tr><tr><td style="font-weight:bold;vertical-align:top;">generator</td><td style="vertical-align:top;">:</td><td><div>Web2py Web Framework</div></td></tr><tr><td style="font-weight:bold;vertical-align:top;">keywords</td><td style="vertical-align:top;">:</td><td><div><table><tr><td><div>web2py</div></td></tr><tr><td><div>python</div></td></tr><tr><td><div>framework</div></td></tr></table></div></td></tr></table></div></td></tr><tr><td style="font-weight:bold;vertical-align:top;">models_to_run</td><td style="vertical-align:top;">:</td><td><div><table><tr><td><div>^\\w+\\.py$</div></td></tr><tr><td><div>^default/\\w+\\.py$</div></td></tr><tr><td><div>^default/get_chart_data/\\w+\\.py$</div></td></tr></table></div></td></tr><tr><td style="font-weight:bold;vertical-align:top;">postprocessing</td><td style="vertical-align:top;">:</td><td><div><table></table></div></td></tr><tr><td style="font-weight:bold;vertical-align:top;">session_client</td><td style="vertical-align:top;">:</td><td><div>127.0.0.1</div></td></tr><tr><td style="font-weight:bold;vertical-align:top;">session_cookie_compression_level</td><td style="vertical-align:top;">:</td><td><div>None</div></td></tr><tr><td style="font-weight:bold;vertical-align:top;">session_cookie_expires</td><td style="vertical-align:top;">:</td><td><div>None</div></td></tr><tr><td style="font-weight:bold;vertical-align:top;">session_data_name</td><td style="vertical-align:top;">:</td><td><div>session_data_twitter_analysis_app</div></td></tr><tr><td style="font-weight:bold;vertical-align:top;">session_file</td><td style="vertical-align:top;">:</td><td><div>None</div></td></tr><tr><td style="font-weight:bold;vertical-align:top;">session_filename</td><td style="vertical-align:top;">:</td><td><div>D:\\Workspaces\\Tweet-Streaming-Data-Analysis-Service\\web2py\\applications\\twitter_analysis_app\\sessions\\127.0.0.1-437fd25d-abc2-417c-8e9c-c5fcc0ff115a</div></td></tr><tr><td style="font-weight:bold;vertical-align:top;">session_hash</td><td style="vertical-align:top;">:</td><td><div>c0762cbf4baf7f9af97c051e7fcb8083</div></td></tr><tr><td style="font-weight:bold;vertical-align:top;">session_id</td><td style="vertical-align:top;">:</td><td><div>127.0.0.1-437fd25d-abc2-417c-8e9c-c5fcc0ff115a</div></td></tr><tr><td style="font-weight:bold;vertical-align:top;">session_id_name</td><td style="vertical-align:top;">:</td><td><div>session_id_twitter_analysis_app</div></td></tr><tr><td style="font-weight:bold;vertical-align:top;">session_masterapp</td><td style="vertical-align:top;">:</td><td><div>twitter_analysis_app</div></td></tr><tr><td style="font-weight:bold;vertical-align:top;">session_new</td><td style="vertical-align:top;">:</td><td><div>True</div></td></tr><tr><td style="font-weight:bold;vertical-align:top;">session_storage_type</td><td style="vertical-align:top;">:</td><td><div>file</div></td></tr><tr><td style="font-weight:bold;vertical-align:top;">status</td><td style="vertical-align:top;">:</td><td><div>200</div></td></tr><tr><td style="font-weight:bold;vertical-align:top;">subtitle</td><td style="vertical-align:top;">:</td><td><div></div></td></tr><tr><td style="font-weight:bold;vertical-align:top;">title</td><td style="vertical-align:top;">:</td><td><div>Twitter Analysis App</div></td></tr><tr><td style="font-weight:bold;vertical-align:top;">view</td><td style="vertical-align:top;">:</td><td><div>default/get_chart_data.html</div></td></tr></table></div>'
tRp184
sS'locals'
p185
(dp186
S'self'
p187
S'<__restricted__.Keyword instance>'
p188
sssS'traceback'
p189
S'Traceback (most recent call last):\n  File "D:\\Workspaces\\Tweet-Streaming-Data-Analysis-Service\\web2py\\gluon\\restricted.py", line 227, in restricted\n    exec ccode in environment\n  File "D:\\Workspaces\\Tweet-Streaming-Data-Analysis-Service\\web2py\\applications\\twitter_analysis_app\\controllers/default.py", line 501, in <module>\n  File "D:\\Workspaces\\Tweet-Streaming-Data-Analysis-Service\\web2py\\gluon\\globals.py", line 417, in <lambda>\n    self._caller = lambda f: f()\n  File "D:\\Workspaces\\Tweet-Streaming-Data-Analysis-Service\\web2py\\applications\\twitter_analysis_app\\controllers/default.py", line 452, in get_chart_data\n    data = process_keyword_analysis()\n  File "D:\\Workspaces\\Tweet-Streaming-Data-Analysis-Service\\web2py\\applications\\twitter_analysis_app\\controllers/default.py", line 389, in process_keyword_analysis\n    keyword = Keyword()\n  File "D:\\Workspaces\\Tweet-Streaming-Data-Analysis-Service\\web2py\\applications\\twitter_analysis_app\\controllers/default.py", line 74, in __init__\n    f = open(\'twitter_analysis_app\\StopWsord.txt\', \'r\')\nIOError: [Errno 2] No such file or directory: \'twitter_analysis_app\\\\StopWsord.txt\'\n'
p190
s.